$VAR1 = {
          'ABI_DUMPER_VERSION' => '1.2',
          'ABI_DUMP_VERSION' => '3.5',
          'Arch' => 'x86_64',
          'Compiler' => 'GNU C++17 9.3.0 -march=nocona -mtune=haswell -g3 -O2 -O2 -std=gnu++17 -std=c++17 -fvisibility-inlines-hidden -fmessage-length=0 -ftree-vectorize -fstack-protector-strong -fno-plt -ffunction-sections -fPIC',
          'Headers' => {
                         'aligned_buffer.h' => 1,
                         'alloc_traits.h' => 1,
                         'allocator.h' => 1,
                         'allocators.h' => 1,
                         'arb.h' => 1,
                         'arb.hpp' => 1,
                         'arf.h' => 1,
                         'arf.hpp' => 1,
                         'atomic' => 1,
                         'atomic_base.h' => 1,
                         'atomic_word.h' => 1,
                         'basic_string.h' => 1,
                         'c++config.h' => 1,
                         'cereal.hpp' => 1,
                         'concurrence.h' => 1,
                         'document.h' => 1,
                         'element.hpp' => 1,
                         'enable_special_members.h' => 1,
                         'encodings.h' => 1,
                         'error.h' => 1,
                         'exact-real.hpp' => 1,
                         'flint.h' => 1,
                         'fmpq_poly.h' => 1,
                         'fmpz.h' => 1,
                         'fmpz_poly.h' => 1,
                         'frandxx.h' => 1,
                         'functional_hash.h' => 1,
                         'gmp.h' => 1,
                         'gmpxx.h' => 1,
                         'hashtable.h' => 1,
                         'hashtable_policy.h' => 1,
                         'helpers.hpp' => 1,
                         'initializer_list' => 1,
                         'integer_ring.hpp' => 1,
                         'intrusive_ptr.hpp' => 1,
                         'iosfwd' => 1,
                         'istream' => 1,
                         'istreamwrapper.h' => 1,
                         'json.hpp' => 1,
                         'mag.h' => 1,
                         'meta.h' => 1,
                         'module.hpp' => 1,
                         'new' => 1,
                         'new_allocator.h' => 1,
                         'nf.h' => 1,
                         'nf_elem.h' => 1,
                         'number_field.hpp' => 1,
                         'operators.hpp' => 1,
                         'optional' => 1,
                         'ostream' => 1,
                         'ostreamwrapper.h' => 1,
                         'prettywriter.h' => 1,
                         'ptr_traits.h' => 1,
                         'rapidjson.h' => 1,
                         'rational_field.hpp' => 1,
                         'real_number.hpp' => 1,
                         'refwrap.h' => 1,
                         'renf.h' => 1,
                         'renf_class.hpp' => 1,
                         'renf_elem.h' => 1,
                         'renf_elem_class.hpp' => 1,
                         'seed.hpp' => 1,
                         'shared_ptr.h' => 1,
                         'shared_ptr_base.h' => 1,
                         'spimpl.h' => 1,
                         'stack.h' => 1,
                         'std_function.h' => 1,
                         'stddef.h' => 1,
                         'stdint.h' => 1,
                         'stl_deque.h' => 1,
                         'stl_function.h' => 1,
                         'stl_iterator.h' => 1,
                         'stl_pair.h' => 1,
                         'stl_stack.h' => 1,
                         'stl_tree.h' => 1,
                         'stl_vector.h' => 1,
                         'stringfwd.h' => 1,
                         'terminal.hpp' => 1,
                         'traits.hpp' => 1,
                         'tuple' => 1,
                         'type_traits' => 1,
                         'typeindex' => 1,
                         'types.h' => 1,
                         'unique_ptr.h' => 1,
                         'unordered_map.h' => 1,
                         'unordered_set.h' => 1,
                         'utility' => 1,
                         'writer.h' => 1
                       },
          'Language' => 'C++',
          'LibraryName' => 'libexactreal.so.6.0.0',
          'LibraryVersion' => undef,
          'MissedOffsets' => '1',
          'MissedRegs' => '1',
          'NameSpaces' => {
                            '__gnu_cxx' => 1,
                            '__gnu_cxx::__ops' => 1,
                            '__pstl::execution::v1' => 1,
                            '_hana' => 1,
                            'boost' => 1,
                            'boost::adaptors' => 1,
                            'boost::algorithm' => 1,
                            'boost::algorithm::detail' => 1,
                            'boost::container' => 1,
                            'boost::conversion::detail' => 1,
                            'boost::detail' => 1,
                            'boost::detail::indirect_traits' => 1,
                            'boost::detail::static_log2_impl' => 1,
                            'boost::exception_detail' => 1,
                            'boost::hana' => 1,
                            'boost::hana::core_detail' => 1,
                            'boost::hana::detail' => 1,
                            'boost::hana::detail::operators' => 1,
                            'boost::hana::detail::variadic' => 1,
                            'boost::hana::ic_detail' => 1,
                            'boost::iterator_range_detail' => 1,
                            'boost::iterators' => 1,
                            'boost::iterators::detail' => 1,
                            'boost::math' => 1,
                            'boost::math::detail' => 1,
                            'boost::math::tools' => 1,
                            'boost::mpl' => 1,
                            'boost::mpl::aux' => 1,
                            'boost::noncopyable_' => 1,
                            'boost::numeric' => 1,
                            'boost::numeric::boundsdetail' => 1,
                            'boost::numeric::convdetail' => 1,
                            'boost::operators_impl' => 1,
                            'boost::operators_impl::operators_detail' => 1,
                            'boost::optional_detail' => 1,
                            'boost::optional_ns' => 1,
                            'boost::random' => 1,
                            'boost::random::detail' => 1,
                            'boost::random::traits' => 1,
                            'boost::range_adl_barrier' => 1,
                            'boost::range_detail' => 1,
                            'boost::type_traits' => 1,
                            'boost::yap' => 1,
                            'boost::yap::detail' => 1,
                            'cereal' => 1,
                            'cereal::base64' => 1,
                            'cereal::detail' => 1,
                            'cereal::traits' => 1,
                            'cereal::traits::detail' => 1,
                            'eantic' => 1,
                            'exactreal' => 1,
                            'exactreal::yap' => 1,
                            'flatsurf' => 1,
                            'flint' => 1,
                            'mpl_' => 1,
                            'rapidjson' => 1,
                            'rapidjson::internal' => 1,
                            'spimpl' => 1,
                            'spimpl::details' => 1,
                            'std' => 1,
                            'std::__cxx11' => 1,
                            'std::__detail' => 1,
                            'std::__exception_ptr' => 1,
                            'std::chrono' => 1,
                            'std::chrono::_V2' => 1,
                            'std::placeholders' => 1,
                            'unique_factory' => 1
                          },
          'Needed' => {
                        'libarb.so.2' => 1,
                        'libc.so.6' => 1,
                        'libeantic.so.1' => 1,
                        'libeanticxx.so.1' => 1,
                        'libgcc_s.so.1' => 1,
                        'libgmpxx.so.4' => 1,
                        'libm.so.6' => 1,
                        'libstdc++.so.6' => 1
                      },
          'Sources' => {
                         'arb.cc' => 1,
                         'arf.cc' => 1,
                         'constrained_random_real_number.cc' => 1,
                         'element.cc' => 1,
                         'integer_ring.cc' => 1,
                         'module.cc' => 1,
                         'number_field.cc' => 1,
                         'random_real_number.cc' => 1,
                         'rational_field.cc' => 1,
                         'rational_real_number.cc' => 1,
                         'real_number.cc' => 1,
                         'real_number_product.cc' => 1
                       },
          'SymbolInfo' => {
                            '1069492' => {
                                           'Artificial' => 1,
                                           'Class' => '1049163',
                                           'Constructor' => 1,
                                           'Header' => 'cereal.hpp',
                                           'InLine' => 1,
                                           'Line' => '46',
                                           'MnglName' => '_ZN9exactreal10CerealWrapI10__gmp_exprIA1_12__mpq_structS3_EEC2EOS4_',
                                           'Param' => {
                                                        '0' => {
                                                                 'name' => 'this',
                                                                 'type' => '1050236'
                                                               },
                                                        '1' => {
                                                                 'name' => 'inner',
                                                                 'type' => '337138'
                                                               }
                                                      },
                                           'ShortName' => 'CerealWrap'
                                         },
                            '1069493' => {
                                           'Artificial' => 1,
                                           'Class' => '1049163',
                                           'Constructor' => 1,
                                           'Header' => 'cereal.hpp',
                                           'InLine' => 1,
                                           'Line' => '46',
                                           'MnglName' => '_ZN9exactreal10CerealWrapI10__gmp_exprIA1_12__mpq_structS3_EEC1EOS4_',
                                           'Param' => {
                                                        '0' => {
                                                                 'name' => 'this',
                                                                 'type' => '1050236'
                                                               },
                                                        '1' => {
                                                                 'name' => 'inner',
                                                                 'type' => '337138'
                                                               }
                                                      },
                                           'ShortName' => 'CerealWrap'
                                         },
                            '1073306' => {
                                           'Artificial' => 1,
                                           'Class' => '82353',
                                           'Constructor' => 1,
                                           'Header' => 'shared_ptr_base.h',
                                           'InLine' => 1,
                                           'Line' => '117',
                                           'MnglName' => '_ZNSt16_Sp_counted_baseILN9__gnu_cxx12_Lock_policyE2EEC2Ev',
                                           'Param' => {
                                                        '0' => {
                                                                 'name' => 'this',
                                                                 'type' => '385136'
                                                               }
                                                      },
                                           'ShortName' => '_Sp_counted_base'
                                         },
                            '1073307' => {
                                           'Artificial' => 1,
                                           'Class' => '82353',
                                           'Constructor' => 1,
                                           'Header' => 'shared_ptr_base.h',
                                           'InLine' => 1,
                                           'Line' => '117',
                                           'MnglName' => '_ZNSt16_Sp_counted_baseILN9__gnu_cxx12_Lock_policyE2EEC1Ev',
                                           'Param' => {
                                                        '0' => {
                                                                 'name' => 'this',
                                                                 'type' => '385136'
                                                               }
                                                      },
                                           'ShortName' => '_Sp_counted_base'
                                         },
                            '1087625' => {
                                           'Artificial' => 1,
                                           'Class' => '81898',
                                           'Constructor' => 1,
                                           'Header' => 'shared_ptr_base.h',
                                           'InLine' => 1,
                                           'Line' => '906',
                                           'MnglName' => '_ZNSt14__shared_countILN9__gnu_cxx12_Lock_policyE2EEC2ERKSt12__weak_countILS1_2EESt9nothrow_t',
                                           'Param' => {
                                                        '0' => {
                                                                 'name' => 'this',
                                                                 'type' => '401415'
                                                               },
                                                        '1' => {
                                                                 'name' => '__r',
                                                                 'type' => '385106'
                                                               },
                                                        '2' => {
                                                                 'name' => 'p2',
                                                                 'type' => '20095'
                                                               }
                                                      },
                                           'ShortName' => '__shared_count'
                                         },
                            '1087626' => {
                                           'Artificial' => 1,
                                           'Class' => '81898',
                                           'Constructor' => 1,
                                           'Header' => 'shared_ptr_base.h',
                                           'InLine' => 1,
                                           'Line' => '906',
                                           'MnglName' => '_ZNSt14__shared_countILN9__gnu_cxx12_Lock_policyE2EEC1ERKSt12__weak_countILS1_2EESt9nothrow_t',
                                           'Param' => {
                                                        '0' => {
                                                                 'name' => 'this',
                                                                 'type' => '401415'
                                                               },
                                                        '1' => {
                                                                 'name' => '__r',
                                                                 'type' => '385106'
                                                               },
                                                        '2' => {
                                                                 'name' => 'p2',
                                                                 'type' => '20095'
                                                               }
                                                      },
                                           'ShortName' => '__shared_count'
                                         },
                            '1090892' => {
                                           'Artificial' => 1,
                                           'Class' => '81898',
                                           'Constructor' => 1,
                                           'Header' => 'shared_ptr_base.h',
                                           'InLine' => 1,
                                           'Line' => '733',
                                           'MnglName' => '_ZNSt14__shared_countILN9__gnu_cxx12_Lock_policyE2EEC2ERKS2_',
                                           'Param' => {
                                                        '0' => {
                                                                 'name' => 'this',
                                                                 'type' => '401415'
                                                               },
                                                        '1' => {
                                                                 'name' => '__r',
                                                                 'type' => '385100'
                                                               }
                                                      },
                                           'ShortName' => '__shared_count'
                                         },
                            '1090893' => {
                                           'Artificial' => 1,
                                           'Class' => '81898',
                                           'Constructor' => 1,
                                           'Header' => 'shared_ptr_base.h',
                                           'InLine' => 1,
                                           'Line' => '733',
                                           'MnglName' => '_ZNSt14__shared_countILN9__gnu_cxx12_Lock_policyE2EEC1ERKS2_',
                                           'Param' => {
                                                        '0' => {
                                                                 'name' => 'this',
                                                                 'type' => '401415'
                                                               },
                                                        '1' => {
                                                                 'name' => '__r',
                                                                 'type' => '385100'
                                                               }
                                                      },
                                           'ShortName' => '__shared_count'
                                         },
                            '1096402' => {
                                           'Artificial' => 1,
                                           'Class' => '82353',
                                           'Destructor' => 1,
                                           'Header' => 'shared_ptr_base.h',
                                           'InLine' => 1,
                                           'Line' => '121',
                                           'MnglName' => '_ZNSt16_Sp_counted_baseILN9__gnu_cxx12_Lock_policyE2EED0Ev',
                                           'Param' => {
                                                        '0' => {
                                                                 'name' => 'this',
                                                                 'type' => '385136'
                                                               }
                                                      },
                                           'ShortName' => '_Sp_counted_base',
                                           'Virt' => 1
                                         },
                            '1096403' => {
                                           'Artificial' => 1,
                                           'Class' => '82353',
                                           'Destructor' => 1,
                                           'Header' => 'shared_ptr_base.h',
                                           'InLine' => 1,
                                           'Line' => '121',
                                           'MnglName' => '_ZNSt16_Sp_counted_baseILN9__gnu_cxx12_Lock_policyE2EED1Ev',
                                           'Param' => {
                                                        '0' => {
                                                                 'name' => 'this',
                                                                 'type' => '385136'
                                                               }
                                                      },
                                           'ShortName' => '_Sp_counted_base',
                                           'Virt' => 1
                                         },
                            '1096425' => {
                                           'Artificial' => 1,
                                           'Class' => '82353',
                                           'Destructor' => 1,
                                           'Header' => 'shared_ptr_base.h',
                                           'InLine' => 1,
                                           'Line' => '121',
                                           'MnglName' => '_ZNSt16_Sp_counted_baseILN9__gnu_cxx12_Lock_policyE2EED2Ev',
                                           'Param' => {
                                                        '0' => {
                                                                 'name' => 'this',
                                                                 'type' => '385136'
                                                               }
                                                      },
                                           'ShortName' => '_Sp_counted_base',
                                           'Virt' => 1
                                         },
                            '1098477' => {
                                           'Artificial' => 1,
                                           'Class' => '1049163',
                                           'Constructor' => 1,
                                           'Header' => 'cereal.hpp',
                                           'InLine' => 1,
                                           'Line' => '44',
                                           'MnglName' => '_ZN9exactreal10CerealWrapI10__gmp_exprIA1_12__mpq_structS3_EEC2EOS5_',
                                           'Param' => {
                                                        '0' => {
                                                                 'name' => 'this',
                                                                 'type' => '1050236'
                                                               },
                                                        '1' => {
                                                                 'name' => 'p1',
                                                                 'type' => '1059736'
                                                               }
                                                      },
                                           'ShortName' => 'CerealWrap'
                                         },
                            '1098478' => {
                                           'Artificial' => 1,
                                           'Class' => '1049163',
                                           'Constructor' => 1,
                                           'Header' => 'cereal.hpp',
                                           'InLine' => 1,
                                           'Line' => '44',
                                           'MnglName' => '_ZN9exactreal10CerealWrapI10__gmp_exprIA1_12__mpq_structS3_EEC1EOS5_',
                                           'Param' => {
                                                        '0' => {
                                                                 'name' => 'this',
                                                                 'type' => '1050236'
                                                               },
                                                        '1' => {
                                                                 'name' => 'p1',
                                                                 'type' => '1059736'
                                                               }
                                                      },
                                           'ShortName' => 'CerealWrap'
                                         },
                            '1102468' => {
                                           'Artificial' => 1,
                                           'Class' => '1049163',
                                           'Constructor' => 1,
                                           'Header' => 'cereal.hpp',
                                           'InLine' => 1,
                                           'Line' => '47',
                                           'MnglName' => '_ZN9exactreal10CerealWrapI10__gmp_exprIA1_12__mpq_structS3_EEC2ERKS4_',
                                           'Param' => {
                                                        '0' => {
                                                                 'name' => 'this',
                                                                 'type' => '1050236'
                                                               },
                                                        '1' => {
                                                                 'name' => 'inner',
                                                                 'type' => '337132'
                                                               }
                                                      },
                                           'ShortName' => 'CerealWrap'
                                         },
                            '1102469' => {
                                           'Artificial' => 1,
                                           'Class' => '1049163',
                                           'Constructor' => 1,
                                           'Header' => 'cereal.hpp',
                                           'InLine' => 1,
                                           'Line' => '47',
                                           'MnglName' => '_ZN9exactreal10CerealWrapI10__gmp_exprIA1_12__mpq_structS3_EEC1ERKS4_',
                                           'Param' => {
                                                        '0' => {
                                                                 'name' => 'this',
                                                                 'type' => '1050236'
                                                               },
                                                        '1' => {
                                                                 'name' => 'inner',
                                                                 'type' => '337132'
                                                               }
                                                      },
                                           'ShortName' => 'CerealWrap'
                                         },
                            '1105837' => {
                                           'Artificial' => 1,
                                           'Class' => '272995',
                                           'Constructor' => 1,
                                           'Header' => 'optional',
                                           'InLine' => 1,
                                           'Line' => '113',
                                           'MnglName' => '_ZNSt22_Optional_payload_baseI10__gmp_exprIA1_12__mpq_structS2_EEC2IJRKS3_EEESt10in_place_tDpOT_',
                                           'Param' => {
                                                        '0' => {
                                                                 'name' => 'this',
                                                                 'type' => '433805'
                                                               },
                                                        '1' => {
                                                                 'name' => '__tag',
                                                                 'type' => '19065'
                                                               },
                                                        '2' => {
                                                                 'name' => 'p2',
                                                                 'type' => '337132'
                                                               }
                                                      },
                                           'ShortName' => '_Optional_payload_base<__gmp_expr<__mpq_struct[1], __mpq_struct[1]>const&>',
                                           'TParam' => {
                                                         '0' => {
                                                                  'key' => undef,
                                                                  'type' => '337132'
                                                                }
                                                       }
                                         },
                            '1105838' => {
                                           'Artificial' => 1,
                                           'Class' => '272995',
                                           'Constructor' => 1,
                                           'Header' => 'optional',
                                           'InLine' => 1,
                                           'Line' => '113',
                                           'MnglName' => '_ZNSt22_Optional_payload_baseI10__gmp_exprIA1_12__mpq_structS2_EEC1IJRKS3_EEESt10in_place_tDpOT_',
                                           'Param' => {
                                                        '0' => {
                                                                 'name' => 'this',
                                                                 'type' => '433805'
                                                               },
                                                        '1' => {
                                                                 'name' => '__tag',
                                                                 'type' => '19065'
                                                               },
                                                        '2' => {
                                                                 'name' => 'p2',
                                                                 'type' => '337132'
                                                               }
                                                      },
                                           'ShortName' => '_Optional_payload_base<__gmp_expr<__mpq_struct[1], __mpq_struct[1]>const&>',
                                           'TParam' => {
                                                         '0' => {
                                                                  'key' => undef,
                                                                  'type' => '337132'
                                                                }
                                                       }
                                         },
                            '1105944' => {
                                           'Artificial' => 1,
                                           'Class' => '273017',
                                           'Constructor' => 1,
                                           'Header' => 'optional',
                                           'InLine' => 1,
                                           'Line' => '222',
                                           'MnglName' => '_ZNSt22_Optional_payload_baseI10__gmp_exprIA1_12__mpq_structS2_EE8_StorageIS3_Lb0EEC2IJRKS3_EEESt10in_place_tDpOT_',
                                           'Param' => {
                                                        '0' => {
                                                                 'name' => 'this',
                                                                 'type' => '433794'
                                                               },
                                                        '1' => {
                                                                 'name' => 'p1',
                                                                 'type' => '19065'
                                                               },
                                                        '2' => {
                                                                 'name' => 'p2',
                                                                 'type' => '337132'
                                                               }
                                                      },
                                           'ShortName' => '_Storage<__gmp_expr<__mpq_struct[1], __mpq_struct[1]>const&>',
                                           'TParam' => {
                                                         '0' => {
                                                                  'key' => undef,
                                                                  'type' => '337132'
                                                                }
                                                       }
                                         },
                            '1105945' => {
                                           'Artificial' => 1,
                                           'Class' => '273017',
                                           'Constructor' => 1,
                                           'Header' => 'optional',
                                           'InLine' => 1,
                                           'Line' => '222',
                                           'MnglName' => '_ZNSt22_Optional_payload_baseI10__gmp_exprIA1_12__mpq_structS2_EE8_StorageIS3_Lb0EEC1IJRKS3_EEESt10in_place_tDpOT_',
                                           'Param' => {
                                                        '0' => {
                                                                 'name' => 'this',
                                                                 'type' => '433794'
                                                               },
                                                        '1' => {
                                                                 'name' => 'p1',
                                                                 'type' => '19065'
                                                               },
                                                        '2' => {
                                                                 'name' => 'p2',
                                                                 'type' => '337132'
                                                               }
                                                      },
                                           'ShortName' => '_Storage<__gmp_expr<__mpq_struct[1], __mpq_struct[1]>const&>',
                                           'TParam' => {
                                                         '0' => {
                                                                  'key' => undef,
                                                                  'type' => '337132'
                                                                }
                                                       }
                                         },
                            '1130834' => {
                                           'Artificial' => 1,
                                           'Class' => '1049163',
                                           'Constructor' => 1,
                                           'Header' => 'cereal.hpp',
                                           'InLine' => 1,
                                           'Line' => '45',
                                           'MnglName' => '_ZN9exactreal10CerealWrapI10__gmp_exprIA1_12__mpq_structS3_EEC2Ev',
                                           'Param' => {
                                                        '0' => {
                                                                 'name' => 'this',
                                                                 'type' => '1050236'
                                                               }
                                                      },
                                           'ShortName' => 'CerealWrap'
                                         },
                            '1130835' => {
                                           'Artificial' => 1,
                                           'Class' => '1049163',
                                           'Constructor' => 1,
                                           'Header' => 'cereal.hpp',
                                           'InLine' => 1,
                                           'Line' => '45',
                                           'MnglName' => '_ZN9exactreal10CerealWrapI10__gmp_exprIA1_12__mpq_structS3_EEC1Ev',
                                           'Param' => {
                                                        '0' => {
                                                                 'name' => 'this',
                                                                 'type' => '1050236'
                                                               }
                                                      },
                                           'ShortName' => 'CerealWrap'
                                         },
                            '1133437' => {
                                           'Artificial' => 1,
                                           'Class' => '333343',
                                           'Constructor' => 1,
                                           'Header' => 'gmpxx.h',
                                           'InLine' => 1,
                                           'Line' => '1803',
                                           'MnglName' => '_ZN10__gmp_exprIA1_12__mpq_structS1_EC2I17__gmp_binary_exprIS2_S2_23__gmp_binary_multipliesEEERKS_IS1_T_E',
                                           'Param' => {
                                                        '0' => {
                                                                 'name' => 'this',
                                                                 'type' => '337116'
                                                               },
                                                        '1' => {
                                                                 'name' => 'expr',
                                                                 'type' => '1105580'
                                                               }
                                                      },
                                           'ShortName' => '__gmp_expr<__gmp_binary_expr<__gmp_expr<__mpq_struct[1], __mpq_struct[1]>, __gmp_expr<__mpq_struct[1], __mpq_struct[1]>, __gmp_binary_multiplies> >',
                                           'TParam' => {
                                                         '0' => {
                                                                  'key' => 'T',
                                                                  'type' => '1057893'
                                                                }
                                                       }
                                         },
                            '1133438' => {
                                           'Artificial' => 1,
                                           'Class' => '333343',
                                           'Constructor' => 1,
                                           'Header' => 'gmpxx.h',
                                           'InLine' => 1,
                                           'Line' => '1803',
                                           'MnglName' => '_ZN10__gmp_exprIA1_12__mpq_structS1_EC1I17__gmp_binary_exprIS2_S2_23__gmp_binary_multipliesEEERKS_IS1_T_E',
                                           'Param' => {
                                                        '0' => {
                                                                 'name' => 'this',
                                                                 'type' => '337116'
                                                               },
                                                        '1' => {
                                                                 'name' => 'expr',
                                                                 'type' => '1105580'
                                                               }
                                                      },
                                           'ShortName' => '__gmp_expr<__gmp_binary_expr<__gmp_expr<__mpq_struct[1], __mpq_struct[1]>, __gmp_expr<__mpq_struct[1], __mpq_struct[1]>, __gmp_binary_multiplies> >',
                                           'TParam' => {
                                                         '0' => {
                                                                  'key' => 'T',
                                                                  'type' => '1057893'
                                                                }
                                                       }
                                         },
                            '1133826' => {
                                           'Artificial' => 1,
                                           'Class' => '256640',
                                           'Constructor' => 1,
                                           'Header' => 'optional',
                                           'InLine' => 1,
                                           'Line' => '698',
                                           'MnglName' => '_ZNSt8optionalI10__gmp_exprIA1_12__mpq_structS2_EEC2IRKS3_Lb1EEEOT_',
                                           'Param' => {
                                                        '0' => {
                                                                 'name' => 'this',
                                                                 'type' => '433932'
                                                               },
                                                        '1' => {
                                                                 'name' => '__t',
                                                                 'type' => '337132'
                                                               }
                                                      },
                                           'ShortName' => 'optional<__gmp_expr<__mpq_struct[1], __mpq_struct[1]>const&>',
                                           'TParam' => {
                                                         '0' => {
                                                                  'key' => '_Up',
                                                                  'type' => '337132'
                                                                }
                                                       }
                                         },
                            '1133827' => {
                                           'Artificial' => 1,
                                           'Class' => '256640',
                                           'Constructor' => 1,
                                           'Header' => 'optional',
                                           'InLine' => 1,
                                           'Line' => '698',
                                           'MnglName' => '_ZNSt8optionalI10__gmp_exprIA1_12__mpq_structS2_EEC1IRKS3_Lb1EEEOT_',
                                           'Param' => {
                                                        '0' => {
                                                                 'name' => 'this',
                                                                 'type' => '433932'
                                                               },
                                                        '1' => {
                                                                 'name' => '__t',
                                                                 'type' => '337132'
                                                               }
                                                      },
                                           'ShortName' => 'optional<__gmp_expr<__mpq_struct[1], __mpq_struct[1]>const&>',
                                           'TParam' => {
                                                         '0' => {
                                                                  'key' => '_Up',
                                                                  'type' => '337132'
                                                                }
                                                       }
                                         },
                            '1133919' => {
                                           'Artificial' => 1,
                                           'Class' => '274080',
                                           'Constructor' => 1,
                                           'Header' => 'optional',
                                           'InLine' => 1,
                                           'Line' => '480',
                                           'MnglName' => '_ZNSt14_Optional_baseI10__gmp_exprIA1_12__mpq_structS2_ELb0ELb0EEC2IJRKS3_ELb0EEESt10in_place_tDpOT_',
                                           'Param' => {
                                                        '0' => {
                                                                 'name' => 'this',
                                                                 'type' => '433903'
                                                               },
                                                        '1' => {
                                                                 'name' => 'p1',
                                                                 'type' => '19065'
                                                               },
                                                        '2' => {
                                                                 'name' => 'p2',
                                                                 'type' => '337132'
                                                               }
                                                      },
                                           'ShortName' => '_Optional_base<__gmp_expr<__mpq_struct[1], __mpq_struct[1]>const&>',
                                           'TParam' => {
                                                         '0' => {
                                                                  'key' => undef,
                                                                  'type' => '337132'
                                                                }
                                                       }
                                         },
                            '1133920' => {
                                           'Artificial' => 1,
                                           'Class' => '274080',
                                           'Constructor' => 1,
                                           'Header' => 'optional',
                                           'InLine' => 1,
                                           'Line' => '480',
                                           'MnglName' => '_ZNSt14_Optional_baseI10__gmp_exprIA1_12__mpq_structS2_ELb0ELb0EEC1IJRKS3_ELb0EEESt10in_place_tDpOT_',
                                           'Param' => {
                                                        '0' => {
                                                                 'name' => 'this',
                                                                 'type' => '433903'
                                                               },
                                                        '1' => {
                                                                 'name' => 'p1',
                                                                 'type' => '19065'
                                                               },
                                                        '2' => {
                                                                 'name' => 'p2',
                                                                 'type' => '337132'
                                                               }
                                                      },
                                           'ShortName' => '_Optional_base<__gmp_expr<__mpq_struct[1], __mpq_struct[1]>const&>',
                                           'TParam' => {
                                                         '0' => {
                                                                  'key' => undef,
                                                                  'type' => '337132'
                                                                }
                                                       }
                                         },
                            '1136015' => {
                                           'Artificial' => 1,
                                           'Class' => '263721',
                                           'Destructor' => 1,
                                           'Header' => 'optional',
                                           'InLine' => 1,
                                           'Line' => '398',
                                           'MnglName' => '_ZNSt17_Optional_payloadIN9exactreal3ArfELb0ELb0ELb0EED2Ev',
                                           'Param' => {
                                                        '0' => {
                                                                 'name' => 'this',
                                                                 'type' => '1056127'
                                                               }
                                                      },
                                           'ShortName' => '_Optional_payload'
                                         },
                            '1136016' => {
                                           'Artificial' => 1,
                                           'Class' => '263721',
                                           'Destructor' => 1,
                                           'Header' => 'optional',
                                           'InLine' => 1,
                                           'Line' => '398',
                                           'MnglName' => '_ZNSt17_Optional_payloadIN9exactreal3ArfELb0ELb0ELb0EED0Ev',
                                           'Param' => {
                                                        '0' => {
                                                                 'name' => 'this',
                                                                 'type' => '1056127'
                                                               }
                                                      },
                                           'ShortName' => '_Optional_payload'
                                         },
                            '1136071' => {
                                           'Artificial' => 1,
                                           'Class' => '263127',
                                           'Destructor' => 1,
                                           'Header' => 'optional',
                                           'InLine' => 1,
                                           'Line' => '233',
                                           'MnglName' => '_ZNSt22_Optional_payload_baseIN9exactreal3ArfEE8_StorageIS1_Lb0EED2Ev',
                                           'Param' => {
                                                        '0' => {
                                                                 'name' => 'this',
                                                                 'type' => '1056081'
                                                               }
                                                      },
                                           'ShortName' => '_Storage'
                                         },
                            '1136072' => {
                                           'Artificial' => 1,
                                           'Class' => '263127',
                                           'Destructor' => 1,
                                           'Header' => 'optional',
                                           'InLine' => 1,
                                           'Line' => '233',
                                           'MnglName' => '_ZNSt22_Optional_payload_baseIN9exactreal3ArfEE8_StorageIS1_Lb0EED0Ev',
                                           'Param' => {
                                                        '0' => {
                                                                 'name' => 'this',
                                                                 'type' => '1056081'
                                                               }
                                                      },
                                           'ShortName' => '_Storage'
                                         },
                            '1136118' => {
                                           'Artificial' => 1,
                                           'Class' => '81444',
                                           'Constructor' => 1,
                                           'Header' => 'shared_ptr_base.h',
                                           'InLine' => 1,
                                           'Line' => '799',
                                           'MnglName' => '_ZNSt12__weak_countILN9__gnu_cxx12_Lock_policyE2EEC2Ev',
                                           'Param' => {
                                                        '0' => {
                                                                 'name' => 'this',
                                                                 'type' => '385095'
                                                               }
                                                      },
                                           'ShortName' => '__weak_count'
                                         },
                            '1136119' => {
                                           'Artificial' => 1,
                                           'Class' => '81444',
                                           'Constructor' => 1,
                                           'Header' => 'shared_ptr_base.h',
                                           'InLine' => 1,
                                           'Line' => '799',
                                           'MnglName' => '_ZNSt12__weak_countILN9__gnu_cxx12_Lock_policyE2EEC1Ev',
                                           'Param' => {
                                                        '0' => {
                                                                 'name' => 'this',
                                                                 'type' => '385095'
                                                               }
                                                      },
                                           'ShortName' => '__weak_count'
                                         },
                            '1156098' => {
                                           'Artificial' => 1,
                                           'Class' => '1049163',
                                           'Destructor' => 1,
                                           'Header' => 'cereal.hpp',
                                           'InLine' => 1,
                                           'Line' => '44',
                                           'MnglName' => '_ZN9exactreal10CerealWrapI10__gmp_exprIA1_12__mpq_structS3_EED2Ev',
                                           'Param' => {
                                                        '0' => {
                                                                 'name' => 'this',
                                                                 'type' => '1050236'
                                                               }
                                                      },
                                           'ShortName' => 'CerealWrap'
                                         },
                            '1156099' => {
                                           'Artificial' => 1,
                                           'Class' => '1049163',
                                           'Destructor' => 1,
                                           'Header' => 'cereal.hpp',
                                           'InLine' => 1,
                                           'Line' => '44',
                                           'MnglName' => '_ZN9exactreal10CerealWrapI10__gmp_exprIA1_12__mpq_structS3_EED0Ev',
                                           'Param' => {
                                                        '0' => {
                                                                 'name' => 'this',
                                                                 'type' => '1050236'
                                                               }
                                                      },
                                           'ShortName' => 'CerealWrap'
                                         },
                            '1209019' => {
                                           'Artificial' => 1,
                                           'Class' => '264468',
                                           'Destructor' => 1,
                                           'Header' => 'optional',
                                           'InLine' => 1,
                                           'Line' => '656',
                                           'MnglName' => '_ZNSt8optionalIN9exactreal3ArfEED2Ev',
                                           'Param' => {
                                                        '0' => {
                                                                 'name' => 'this',
                                                                 'type' => '433006'
                                                               }
                                                      },
                                           'ShortName' => 'optional'
                                         },
                            '1209020' => {
                                           'Artificial' => 1,
                                           'Class' => '264468',
                                           'Destructor' => 1,
                                           'Header' => 'optional',
                                           'InLine' => 1,
                                           'Line' => '656',
                                           'MnglName' => '_ZNSt8optionalIN9exactreal3ArfEED0Ev',
                                           'Param' => {
                                                        '0' => {
                                                                 'name' => 'this',
                                                                 'type' => '433006'
                                                               }
                                                      },
                                           'ShortName' => 'optional'
                                         },
                            '1209066' => {
                                           'Artificial' => 1,
                                           'Class' => '264468',
                                           'Constructor' => 1,
                                           'Header' => 'optional',
                                           'InLine' => 1,
                                           'Line' => '688',
                                           'MnglName' => '_ZNSt8optionalIN9exactreal3ArfEEC2Ev',
                                           'Param' => {
                                                        '0' => {
                                                                 'name' => 'this',
                                                                 'type' => '433006'
                                                               }
                                                      },
                                           'ShortName' => 'optional'
                                         },
                            '1209067' => {
                                           'Artificial' => 1,
                                           'Class' => '264468',
                                           'Constructor' => 1,
                                           'Header' => 'optional',
                                           'InLine' => 1,
                                           'Line' => '688',
                                           'MnglName' => '_ZNSt8optionalIN9exactreal3ArfEEC1Ev',
                                           'Param' => {
                                                        '0' => {
                                                                 'name' => 'this',
                                                                 'type' => '433006'
                                                               }
                                                      },
                                           'ShortName' => 'optional'
                                         },
                            '1209127' => {
                                           'Artificial' => 1,
                                           'Class' => '264190',
                                           'Destructor' => 1,
                                           'Header' => 'optional',
                                           'InLine' => 1,
                                           'Line' => '471',
                                           'MnglName' => '_ZNSt14_Optional_baseIN9exactreal3ArfELb0ELb0EED2Ev',
                                           'Param' => {
                                                        '0' => {
                                                                 'name' => 'this',
                                                                 'type' => '1056185'
                                                               }
                                                      },
                                           'ShortName' => '_Optional_base'
                                         },
                            '1209128' => {
                                           'Artificial' => 1,
                                           'Class' => '264190',
                                           'Destructor' => 1,
                                           'Header' => 'optional',
                                           'InLine' => 1,
                                           'Line' => '471',
                                           'MnglName' => '_ZNSt14_Optional_baseIN9exactreal3ArfELb0ELb0EED0Ev',
                                           'Param' => {
                                                        '0' => {
                                                                 'name' => 'this',
                                                                 'type' => '1056185'
                                                               }
                                                      },
                                           'ShortName' => '_Optional_base'
                                         },
                            '1209174' => {
                                           'Artificial' => 1,
                                           'Class' => '264190',
                                           'Constructor' => 1,
                                           'Header' => 'optional',
                                           'InLine' => 1,
                                           'Line' => '475',
                                           'MnglName' => '_ZNSt14_Optional_baseIN9exactreal3ArfELb0ELb0EEC2Ev',
                                           'Param' => {
                                                        '0' => {
                                                                 'name' => 'this',
                                                                 'type' => '1056185'
                                                               }
                                                      },
                                           'ShortName' => '_Optional_base'
                                         },
                            '1209175' => {
                                           'Artificial' => 1,
                                           'Class' => '264190',
                                           'Constructor' => 1,
                                           'Header' => 'optional',
                                           'InLine' => 1,
                                           'Line' => '475',
                                           'MnglName' => '_ZNSt14_Optional_baseIN9exactreal3ArfELb0ELb0EEC1Ev',
                                           'Param' => {
                                                        '0' => {
                                                                 'name' => 'this',
                                                                 'type' => '1056185'
                                                               }
                                                      },
                                           'ShortName' => '_Optional_base'
                                         },
                            '1209221' => {
                                           'Artificial' => 1,
                                           'Class' => '263721',
                                           'Constructor' => 1,
                                           'Header' => 'optional',
                                           'InLine' => 1,
                                           'Line' => '391',
                                           'MnglName' => '_ZNSt17_Optional_payloadIN9exactreal3ArfELb0ELb0ELb0EEC2Ev',
                                           'Param' => {
                                                        '0' => {
                                                                 'name' => 'this',
                                                                 'type' => '1056127'
                                                               }
                                                      },
                                           'ShortName' => '_Optional_payload'
                                         },
                            '1209222' => {
                                           'Artificial' => 1,
                                           'Class' => '263721',
                                           'Constructor' => 1,
                                           'Header' => 'optional',
                                           'InLine' => 1,
                                           'Line' => '391',
                                           'MnglName' => '_ZNSt17_Optional_payloadIN9exactreal3ArfELb0ELb0ELb0EEC1Ev',
                                           'Param' => {
                                                        '0' => {
                                                                 'name' => 'this',
                                                                 'type' => '1056127'
                                                               }
                                                      },
                                           'ShortName' => '_Optional_payload'
                                         },
                            '1209277' => {
                                           'Artificial' => 1,
                                           'Class' => '263721',
                                           'Destructor' => 1,
                                           'Header' => 'optional',
                                           'InLine' => 1,
                                           'Line' => '359',
                                           'MnglName' => '_ZNSt17_Optional_payloadIN9exactreal3ArfELb1ELb0ELb0EED2Ev',
                                           'Param' => {
                                                        '0' => {
                                                                 'name' => 'this',
                                                                 'type' => '1056127'
                                                               }
                                                      },
                                           'ShortName' => '_Optional_payload'
                                         },
                            '1209278' => {
                                           'Artificial' => 1,
                                           'Class' => '263721',
                                           'Destructor' => 1,
                                           'Header' => 'optional',
                                           'InLine' => 1,
                                           'Line' => '359',
                                           'MnglName' => '_ZNSt17_Optional_payloadIN9exactreal3ArfELb1ELb0ELb0EED0Ev',
                                           'Param' => {
                                                        '0' => {
                                                                 'name' => 'this',
                                                                 'type' => '1056127'
                                                               }
                                                      },
                                           'ShortName' => '_Optional_payload'
                                         },
                            '1209324' => {
                                           'Artificial' => 1,
                                           'Class' => '263721',
                                           'Constructor' => 1,
                                           'Header' => 'optional',
                                           'InLine' => 1,
                                           'Line' => '358',
                                           'MnglName' => '_ZNSt17_Optional_payloadIN9exactreal3ArfELb1ELb0ELb0EEC2Ev',
                                           'Param' => {
                                                        '0' => {
                                                                 'name' => 'this',
                                                                 'type' => '1056127'
                                                               }
                                                      },
                                           'ShortName' => '_Optional_payload'
                                         },
                            '1209325' => {
                                           'Artificial' => 1,
                                           'Class' => '263721',
                                           'Constructor' => 1,
                                           'Header' => 'optional',
                                           'InLine' => 1,
                                           'Line' => '358',
                                           'MnglName' => '_ZNSt17_Optional_payloadIN9exactreal3ArfELb1ELb0ELb0EEC1Ev',
                                           'Param' => {
                                                        '0' => {
                                                                 'name' => 'this',
                                                                 'type' => '1056127'
                                                               }
                                                      },
                                           'ShortName' => '_Optional_payload'
                                         },
                            '1209380' => {
                                           'Artificial' => 1,
                                           'Class' => '263105',
                                           'Destructor' => 1,
                                           'Header' => 'optional',
                                           'InLine' => 1,
                                           'Line' => '109',
                                           'MnglName' => '_ZNSt22_Optional_payload_baseIN9exactreal3ArfEED2Ev',
                                           'Param' => {
                                                        '0' => {
                                                                 'name' => 'this',
                                                                 'type' => '432899'
                                                               }
                                                      },
                                           'ShortName' => '_Optional_payload_base'
                                         },
                            '1209381' => {
                                           'Artificial' => 1,
                                           'Class' => '263105',
                                           'Destructor' => 1,
                                           'Header' => 'optional',
                                           'InLine' => 1,
                                           'Line' => '109',
                                           'MnglName' => '_ZNSt22_Optional_payload_baseIN9exactreal3ArfEED0Ev',
                                           'Param' => {
                                                        '0' => {
                                                                 'name' => 'this',
                                                                 'type' => '432899'
                                                               }
                                                      },
                                           'ShortName' => '_Optional_payload_base'
                                         },
                            '1209427' => {
                                           'Artificial' => 1,
                                           'Class' => '263105',
                                           'Constructor' => 1,
                                           'Header' => 'optional',
                                           'InLine' => 1,
                                           'Line' => '108',
                                           'MnglName' => '_ZNSt22_Optional_payload_baseIN9exactreal3ArfEEC2Ev',
                                           'Param' => {
                                                        '0' => {
                                                                 'name' => 'this',
                                                                 'type' => '432899'
                                                               }
                                                      },
                                           'ShortName' => '_Optional_payload_base'
                                         },
                            '1209428' => {
                                           'Artificial' => 1,
                                           'Class' => '263105',
                                           'Constructor' => 1,
                                           'Header' => 'optional',
                                           'InLine' => 1,
                                           'Line' => '108',
                                           'MnglName' => '_ZNSt22_Optional_payload_baseIN9exactreal3ArfEEC1Ev',
                                           'Param' => {
                                                        '0' => {
                                                                 'name' => 'this',
                                                                 'type' => '432899'
                                                               }
                                                      },
                                           'ShortName' => '_Optional_payload_base'
                                         },
                            '1209474' => {
                                           'Artificial' => 1,
                                           'Class' => '263127',
                                           'Constructor' => 1,
                                           'Header' => 'optional',
                                           'InLine' => 1,
                                           'Line' => '218',
                                           'MnglName' => '_ZNSt22_Optional_payload_baseIN9exactreal3ArfEE8_StorageIS1_Lb0EEC1Ev',
                                           'Param' => {
                                                        '0' => {
                                                                 'name' => 'this',
                                                                 'type' => '1056081'
                                                               }
                                                      },
                                           'ShortName' => '_Storage'
                                         },
                            '1209475' => {
                                           'Artificial' => 1,
                                           'Class' => '263127',
                                           'Constructor' => 1,
                                           'Header' => 'optional',
                                           'InLine' => 1,
                                           'Line' => '218',
                                           'MnglName' => '_ZNSt22_Optional_payload_baseIN9exactreal3ArfEE8_StorageIS1_Lb0EEC2Ev',
                                           'Param' => {
                                                        '0' => {
                                                                 'name' => 'this',
                                                                 'type' => '1056081'
                                                               }
                                                      },
                                           'ShortName' => '_Storage'
                                         },
                            '1209524' => {
                                           'Artificial' => 1,
                                           'Class' => '377229',
                                           'Constructor' => 1,
                                           'Header' => 'real_number.hpp',
                                           'InLine' => 1,
                                           'Line' => '34',
                                           'MnglName' => '_ZN9exactreal10RealNumberC2Ev',
                                           'Param' => {
                                                        '0' => {
                                                                 'name' => 'this',
                                                                 'type' => '385182'
                                                               }
                                                      },
                                           'ShortName' => 'RealNumber'
                                         },
                            '1209525' => {
                                           'Artificial' => 1,
                                           'Class' => '377229',
                                           'Constructor' => 1,
                                           'Header' => 'real_number.hpp',
                                           'InLine' => 1,
                                           'Line' => '34',
                                           'MnglName' => '_ZN9exactreal10RealNumberC1Ev',
                                           'Param' => {
                                                        '0' => {
                                                                 'name' => 'this',
                                                                 'type' => '385182'
                                                               }
                                                      },
                                           'ShortName' => 'RealNumber'
                                         },
                            '1209571' => {
                                           'Artificial' => 1,
                                           'Class' => '84490',
                                           'Constructor' => 1,
                                           'Header' => 'shared_ptr.h',
                                           'InLine' => 1,
                                           'Line' => '638',
                                           'MnglName' => '_ZNSt23enable_shared_from_thisIN9exactreal10RealNumberEEC2Ev',
                                           'Param' => {
                                                        '0' => {
                                                                 'name' => 'this',
                                                                 'type' => '385234'
                                                               }
                                                      },
                                           'Protected' => 1,
                                           'ShortName' => 'enable_shared_from_this'
                                         },
                            '1209572' => {
                                           'Artificial' => 1,
                                           'Class' => '84490',
                                           'Constructor' => 1,
                                           'Header' => 'shared_ptr.h',
                                           'InLine' => 1,
                                           'Line' => '638',
                                           'MnglName' => '_ZNSt23enable_shared_from_thisIN9exactreal10RealNumberEEC1Ev',
                                           'Param' => {
                                                        '0' => {
                                                                 'name' => 'this',
                                                                 'type' => '385234'
                                                               }
                                                      },
                                           'Protected' => 1,
                                           'ShortName' => 'enable_shared_from_this'
                                         },
                            '1209618' => {
                                           'Artificial' => 1,
                                           'Class' => '83947',
                                           'Constructor' => 1,
                                           'Header' => 'shared_ptr.h',
                                           'InLine' => 1,
                                           'Line' => '544',
                                           'MnglName' => '_ZNSt8weak_ptrIN9exactreal10RealNumberEEC2Ev',
                                           'Param' => {
                                                        '0' => {
                                                                 'name' => 'this',
                                                                 'type' => '385199'
                                                               }
                                                      },
                                           'ShortName' => 'weak_ptr'
                                         },
                            '1209619' => {
                                           'Artificial' => 1,
                                           'Class' => '83947',
                                           'Constructor' => 1,
                                           'Header' => 'shared_ptr.h',
                                           'InLine' => 1,
                                           'Line' => '544',
                                           'MnglName' => '_ZNSt8weak_ptrIN9exactreal10RealNumberEEC1Ev',
                                           'Param' => {
                                                        '0' => {
                                                                 'name' => 'this',
                                                                 'type' => '385199'
                                                               }
                                                      },
                                           'ShortName' => 'weak_ptr'
                                         },
                            '1209665' => {
                                           'Artificial' => 1,
                                           'Class' => '82879',
                                           'Constructor' => 1,
                                           'Header' => 'shared_ptr_base.h',
                                           'InLine' => 1,
                                           'Line' => '1590',
                                           'MnglName' => '_ZNSt10__weak_ptrIN9exactreal10RealNumberELN9__gnu_cxx12_Lock_policyE2EEC2Ev',
                                           'Param' => {
                                                        '0' => {
                                                                 'name' => 'this',
                                                                 'type' => '385147'
                                                               }
                                                      },
                                           'ShortName' => '__weak_ptr'
                                         },
                            '1209666' => {
                                           'Artificial' => 1,
                                           'Class' => '82879',
                                           'Constructor' => 1,
                                           'Header' => 'shared_ptr_base.h',
                                           'InLine' => 1,
                                           'Line' => '1590',
                                           'MnglName' => '_ZNSt10__weak_ptrIN9exactreal10RealNumberELN9__gnu_cxx12_Lock_policyE2EEC1Ev',
                                           'Param' => {
                                                        '0' => {
                                                                 'name' => 'this',
                                                                 'type' => '385147'
                                                               }
                                                      },
                                           'ShortName' => '__weak_ptr'
                                         },
                            '1232816' => {
                                           'Artificial' => 1,
                                           'Class' => '333343',
                                           'Constructor' => 1,
                                           'Header' => 'gmpxx.h',
                                           'InLine' => 1,
                                           'Line' => '1827',
                                           'MnglName' => '_ZN10__gmp_exprIA1_12__mpq_structS1_EC2ERKNSt7__cxx1112basic_stringIcSt11char_traitsIcESaIcEEEi',
                                           'Param' => {
                                                        '0' => {
                                                                 'name' => 'this',
                                                                 'type' => '337116'
                                                               },
                                                        '1' => {
                                                                 'name' => 's',
                                                                 'type' => '322737'
                                                               },
                                                        '2' => {
                                                                 'name' => 'base',
                                                                 'type' => '311699'
                                                               }
                                                      },
                                           'ShortName' => '__gmp_expr'
                                         },
                            '1232817' => {
                                           'Artificial' => 1,
                                           'Class' => '333343',
                                           'Constructor' => 1,
                                           'Header' => 'gmpxx.h',
                                           'InLine' => 1,
                                           'Line' => '1827',
                                           'MnglName' => '_ZN10__gmp_exprIA1_12__mpq_structS1_EC1ERKNSt7__cxx1112basic_stringIcSt11char_traitsIcESaIcEEEi',
                                           'Param' => {
                                                        '0' => {
                                                                 'name' => 'this',
                                                                 'type' => '337116'
                                                               },
                                                        '1' => {
                                                                 'name' => 's',
                                                                 'type' => '322737'
                                                               },
                                                        '2' => {
                                                                 'name' => 'base',
                                                                 'type' => '311699'
                                                               }
                                                      },
                                           'ShortName' => '__gmp_expr'
                                         },
                            '1232884' => {
                                           'Artificial' => 1,
                                           'Class' => '333343',
                                           'Constructor' => 1,
                                           'Header' => 'gmpxx.h',
                                           'InLine' => 1,
                                           'Line' => '1796',
                                           'MnglName' => '_ZN10__gmp_exprIA1_12__mpq_structS1_EC2EOS2_',
                                           'Param' => {
                                                        '0' => {
                                                                 'name' => 'this',
                                                                 'type' => '337116'
                                                               },
                                                        '1' => {
                                                                 'name' => 'q',
                                                                 'type' => '337138'
                                                               }
                                                      },
                                           'ShortName' => '__gmp_expr'
                                         },
                            '1232885' => {
                                           'Artificial' => 1,
                                           'Class' => '333343',
                                           'Constructor' => 1,
                                           'Header' => 'gmpxx.h',
                                           'InLine' => 1,
                                           'Line' => '1796',
                                           'MnglName' => '_ZN10__gmp_exprIA1_12__mpq_structS1_EC1EOS2_',
                                           'Param' => {
                                                        '0' => {
                                                                 'name' => 'this',
                                                                 'type' => '337116'
                                                               },
                                                        '1' => {
                                                                 'name' => 'q',
                                                                 'type' => '337138'
                                                               }
                                                      },
                                           'ShortName' => '__gmp_expr'
                                         },
                            '1232947' => {
                                           'Artificial' => 1,
                                           'Class' => '333343',
                                           'Constructor' => 1,
                                           'Header' => 'gmpxx.h',
                                           'InLine' => 1,
                                           'Line' => '1790',
                                           'MnglName' => '_ZN10__gmp_exprIA1_12__mpq_structS1_EC2ERKS2_',
                                           'Param' => {
                                                        '0' => {
                                                                 'name' => 'this',
                                                                 'type' => '337116'
                                                               },
                                                        '1' => {
                                                                 'name' => 'q',
                                                                 'type' => '337132'
                                                               }
                                                      },
                                           'ShortName' => '__gmp_expr'
                                         },
                            '1232948' => {
                                           'Artificial' => 1,
                                           'Class' => '333343',
                                           'Constructor' => 1,
                                           'Header' => 'gmpxx.h',
                                           'InLine' => 1,
                                           'Line' => '1790',
                                           'MnglName' => '_ZN10__gmp_exprIA1_12__mpq_structS1_EC1ERKS2_',
                                           'Param' => {
                                                        '0' => {
                                                                 'name' => 'this',
                                                                 'type' => '337116'
                                                               },
                                                        '1' => {
                                                                 'name' => 'q',
                                                                 'type' => '337132'
                                                               }
                                                      },
                                           'ShortName' => '__gmp_expr'
                                         },
                            '1232999' => {
                                           'Artificial' => 1,
                                           'Class' => '333343',
                                           'Constructor' => 1,
                                           'Header' => 'gmpxx.h',
                                           'InLine' => 1,
                                           'Line' => '1788',
                                           'MnglName' => '_ZN10__gmp_exprIA1_12__mpq_structS1_EC2Ev',
                                           'Param' => {
                                                        '0' => {
                                                                 'name' => 'this',
                                                                 'type' => '337116'
                                                               }
                                                      },
                                           'ShortName' => '__gmp_expr'
                                         },
                            '1233000' => {
                                           'Artificial' => 1,
                                           'Class' => '333343',
                                           'Constructor' => 1,
                                           'Header' => 'gmpxx.h',
                                           'InLine' => 1,
                                           'Line' => '1788',
                                           'MnglName' => '_ZN10__gmp_exprIA1_12__mpq_structS1_EC1Ev',
                                           'Param' => {
                                                        '0' => {
                                                                 'name' => 'this',
                                                                 'type' => '337116'
                                                               }
                                                      },
                                           'ShortName' => '__gmp_expr'
                                         },
                            '1233559' => {
                                           'Artificial' => 1,
                                           'Class' => '34313',
                                           'Destructor' => 1,
                                           'Header' => 'std_function.h',
                                           'InLine' => 1,
                                           'Line' => '257',
                                           'MnglName' => '_ZNSt14_Function_baseD2Ev',
                                           'Param' => {
                                                        '0' => {
                                                                 'name' => 'this',
                                                                 'type' => '947724'
                                                               }
                                                      },
                                           'ShortName' => '_Function_base'
                                         },
                            '1233560' => {
                                           'Artificial' => 1,
                                           'Class' => '34313',
                                           'Destructor' => 1,
                                           'Header' => 'std_function.h',
                                           'InLine' => 1,
                                           'Line' => '257',
                                           'MnglName' => '_ZNSt14_Function_baseD0Ev',
                                           'Param' => {
                                                        '0' => {
                                                                 'name' => 'this',
                                                                 'type' => '947724'
                                                               }
                                                      },
                                           'ShortName' => '_Function_base'
                                         },
                            '1233606' => {
                                           'Artificial' => 1,
                                           'Class' => '34313',
                                           'Constructor' => 1,
                                           'Header' => 'std_function.h',
                                           'InLine' => 1,
                                           'Line' => '255',
                                           'MnglName' => '_ZNSt14_Function_baseC2Ev',
                                           'Param' => {
                                                        '0' => {
                                                                 'name' => 'this',
                                                                 'type' => '947724'
                                                               }
                                                      },
                                           'ShortName' => '_Function_base'
                                         },
                            '1233607' => {
                                           'Artificial' => 1,
                                           'Class' => '34313',
                                           'Constructor' => 1,
                                           'Header' => 'std_function.h',
                                           'InLine' => 1,
                                           'Line' => '255',
                                           'MnglName' => '_ZNSt14_Function_baseC1Ev',
                                           'Param' => {
                                                        '0' => {
                                                                 'name' => 'this',
                                                                 'type' => '947724'
                                                               }
                                                      },
                                           'ShortName' => '_Function_base'
                                         },
                            '1572346' => {
                                           'Artificial' => 1,
                                           'Class' => '72',
                                           'Constructor' => 1,
                                           'Header' => 'basic_string.h',
                                           'InLine' => 1,
                                           'Line' => '440',
                                           'MnglName' => '_ZNSt7__cxx1112basic_stringIcSt11char_traitsIcESaIcEEC2ERKS3_',
                                           'Param' => {
                                                        '0' => {
                                                                 'name' => 'this',
                                                                 'type' => '322685'
                                                               },
                                                        '1' => {
                                                                 'name' => '__a',
                                                                 'type' => '320801'
                                                               }
                                                      },
                                           'ShortName' => 'basic_string'
                                         },
                            '1572347' => {
                                           'Artificial' => 1,
                                           'Class' => '72',
                                           'Constructor' => 1,
                                           'Header' => 'basic_string.h',
                                           'InLine' => 1,
                                           'Line' => '440',
                                           'MnglName' => '_ZNSt7__cxx1112basic_stringIcSt11char_traitsIcESaIcEEC1ERKS3_',
                                           'Param' => {
                                                        '0' => {
                                                                 'name' => 'this',
                                                                 'type' => '322685'
                                                               },
                                                        '1' => {
                                                                 'name' => '__a',
                                                                 'type' => '320801'
                                                               }
                                                      },
                                           'ShortName' => 'basic_string'
                                         },
                            '1573520' => {
                                           'Artificial' => 1,
                                           'Class' => '76253',
                                           'Destructor' => 1,
                                           'Header' => 'ostream',
                                           'InLine' => 1,
                                           'Line' => '93',
                                           'MnglName' => '_ZNSoD2Ev',
                                           'Param' => {
                                                        '0' => {
                                                                 'name' => 'this',
                                                                 'type' => '1573473'
                                                               }
                                                      },
                                           'ShortName' => 'basic_ostream',
                                           'Virt' => 1
                                         },
                            '1573590' => {
                                           'Artificial' => 1,
                                           'Class' => '76253',
                                           'Constructor' => 1,
                                           'Header' => 'ostream',
                                           'InLine' => 1,
                                           'Line' => '390',
                                           'MnglName' => '_ZNSoC2Ev',
                                           'Param' => {
                                                        '0' => {
                                                                 'name' => 'this',
                                                                 'type' => '1573473'
                                                               }
                                                      },
                                           'Protected' => 1,
                                           'ShortName' => 'basic_ostream'
                                         },
                            '1573591' => {
                                           'Artificial' => 1,
                                           'Class' => '76253',
                                           'Constructor' => 1,
                                           'Header' => 'ostream',
                                           'InLine' => 1,
                                           'Line' => '390',
                                           'MnglName' => '_ZNSoC1Ev',
                                           'Param' => {
                                                        '0' => {
                                                                 'name' => 'this',
                                                                 'type' => '1573473'
                                                               }
                                                      },
                                           'Protected' => 1,
                                           'ShortName' => 'basic_ostream'
                                         },
                            '1573671' => {
                                           'Artificial' => 1,
                                           'Class' => '76350',
                                           'Destructor' => 1,
                                           'Header' => 'istream',
                                           'InLine' => 1,
                                           'Line' => '103',
                                           'MnglName' => '_ZNSiD2Ev',
                                           'Param' => {
                                                        '0' => {
                                                                 'name' => 'this',
                                                                 'type' => '1573624'
                                                               }
                                                      },
                                           'ShortName' => 'basic_istream',
                                           'Virt' => 1
                                         },
                            '1573672' => {
                                           'Artificial' => 1,
                                           'Class' => '76350',
                                           'Destructor' => 1,
                                           'Header' => 'istream',
                                           'InLine' => 1,
                                           'Line' => '103',
                                           'MnglName' => '_ZNSiD0Ev',
                                           'Param' => {
                                                        '0' => {
                                                                 'name' => 'this',
                                                                 'type' => '1573624'
                                                               }
                                                      },
                                           'ShortName' => 'basic_istream',
                                           'Virt' => 1
                                         },
                            '1573741' => {
                                           'Artificial' => 1,
                                           'Class' => '76350',
                                           'Constructor' => 1,
                                           'Header' => 'istream',
                                           'InLine' => 1,
                                           'Line' => '606',
                                           'MnglName' => '_ZNSiC2Ev',
                                           'Param' => {
                                                        '0' => {
                                                                 'name' => 'this',
                                                                 'type' => '1573624'
                                                               }
                                                      },
                                           'Protected' => 1,
                                           'ShortName' => 'basic_istream'
                                         },
                            '1573742' => {
                                           'Artificial' => 1,
                                           'Class' => '76350',
                                           'Constructor' => 1,
                                           'Header' => 'istream',
                                           'InLine' => 1,
                                           'Line' => '606',
                                           'MnglName' => '_ZNSiC1Ev',
                                           'Param' => {
                                                        '0' => {
                                                                 'name' => 'this',
                                                                 'type' => '1573624'
                                                               }
                                                      },
                                           'Protected' => 1,
                                           'ShortName' => 'basic_istream'
                                         },
                            '1600927' => {
                                           'Artificial' => 1,
                                           'Class' => '256640',
                                           'Constructor' => 1,
                                           'Header' => 'optional',
                                           'InLine' => 1,
                                           'Line' => '690',
                                           'MnglName' => '_ZNSt8optionalI10__gmp_exprIA1_12__mpq_structS2_EEC2ESt9nullopt_t',
                                           'Param' => {
                                                        '0' => {
                                                                 'name' => 'this',
                                                                 'type' => '433932'
                                                               },
                                                        '1' => {
                                                                 'name' => 'p1',
                                                                 'type' => '74510'
                                                               }
                                                      },
                                           'ShortName' => 'optional'
                                         },
                            '1600928' => {
                                           'Artificial' => 1,
                                           'Class' => '256640',
                                           'Constructor' => 1,
                                           'Header' => 'optional',
                                           'InLine' => 1,
                                           'Line' => '690',
                                           'MnglName' => '_ZNSt8optionalI10__gmp_exprIA1_12__mpq_structS2_EEC1ESt9nullopt_t',
                                           'Param' => {
                                                        '0' => {
                                                                 'name' => 'this',
                                                                 'type' => '433932'
                                                               },
                                                        '1' => {
                                                                 'name' => 'p1',
                                                                 'type' => '74510'
                                                               }
                                                      },
                                           'ShortName' => 'optional'
                                         },
                            '1600979' => {
                                           'Artificial' => 1,
                                           'Class' => '274080',
                                           'Constructor' => 1,
                                           'Header' => 'optional',
                                           'InLine' => 1,
                                           'Line' => '475',
                                           'MnglName' => '_ZNSt14_Optional_baseI10__gmp_exprIA1_12__mpq_structS2_ELb0ELb0EEC2Ev',
                                           'Param' => {
                                                        '0' => {
                                                                 'name' => 'this',
                                                                 'type' => '433903'
                                                               }
                                                      },
                                           'ShortName' => '_Optional_base'
                                         },
                            '1600980' => {
                                           'Artificial' => 1,
                                           'Class' => '274080',
                                           'Constructor' => 1,
                                           'Header' => 'optional',
                                           'InLine' => 1,
                                           'Line' => '475',
                                           'MnglName' => '_ZNSt14_Optional_baseI10__gmp_exprIA1_12__mpq_structS2_ELb0ELb0EEC1Ev',
                                           'Param' => {
                                                        '0' => {
                                                                 'name' => 'this',
                                                                 'type' => '433903'
                                                               }
                                                      },
                                           'ShortName' => '_Optional_base'
                                         },
                            '1601026' => {
                                           'Artificial' => 1,
                                           'Class' => '273611',
                                           'Constructor' => 1,
                                           'Header' => 'optional',
                                           'InLine' => 1,
                                           'Line' => '391',
                                           'MnglName' => '_ZNSt17_Optional_payloadI10__gmp_exprIA1_12__mpq_structS2_ELb0ELb0ELb0EEC2Ev',
                                           'Param' => {
                                                        '0' => {
                                                                 'name' => 'this',
                                                                 'type' => '433845'
                                                               }
                                                      },
                                           'ShortName' => '_Optional_payload'
                                         },
                            '1601027' => {
                                           'Artificial' => 1,
                                           'Class' => '273611',
                                           'Constructor' => 1,
                                           'Header' => 'optional',
                                           'InLine' => 1,
                                           'Line' => '391',
                                           'MnglName' => '_ZNSt17_Optional_payloadI10__gmp_exprIA1_12__mpq_structS2_ELb0ELb0ELb0EEC1Ev',
                                           'Param' => {
                                                        '0' => {
                                                                 'name' => 'this',
                                                                 'type' => '433845'
                                                               }
                                                      },
                                           'ShortName' => '_Optional_payload'
                                         },
                            '1601073' => {
                                           'Artificial' => 1,
                                           'Class' => '273611',
                                           'Constructor' => 1,
                                           'Header' => 'optional',
                                           'InLine' => 1,
                                           'Line' => '358',
                                           'MnglName' => '_ZNSt17_Optional_payloadI10__gmp_exprIA1_12__mpq_structS2_ELb1ELb0ELb0EEC2Ev',
                                           'Param' => {
                                                        '0' => {
                                                                 'name' => 'this',
                                                                 'type' => '433845'
                                                               }
                                                      },
                                           'ShortName' => '_Optional_payload'
                                         },
                            '1601074' => {
                                           'Artificial' => 1,
                                           'Class' => '273611',
                                           'Constructor' => 1,
                                           'Header' => 'optional',
                                           'InLine' => 1,
                                           'Line' => '358',
                                           'MnglName' => '_ZNSt17_Optional_payloadI10__gmp_exprIA1_12__mpq_structS2_ELb1ELb0ELb0EEC1Ev',
                                           'Param' => {
                                                        '0' => {
                                                                 'name' => 'this',
                                                                 'type' => '433845'
                                                               }
                                                      },
                                           'ShortName' => '_Optional_payload'
                                         },
                            '1601120' => {
                                           'Artificial' => 1,
                                           'Class' => '272995',
                                           'Constructor' => 1,
                                           'Header' => 'optional',
                                           'InLine' => 1,
                                           'Line' => '108',
                                           'MnglName' => '_ZNSt22_Optional_payload_baseI10__gmp_exprIA1_12__mpq_structS2_EEC2Ev',
                                           'Param' => {
                                                        '0' => {
                                                                 'name' => 'this',
                                                                 'type' => '433805'
                                                               }
                                                      },
                                           'ShortName' => '_Optional_payload_base'
                                         },
                            '1601121' => {
                                           'Artificial' => 1,
                                           'Class' => '272995',
                                           'Constructor' => 1,
                                           'Header' => 'optional',
                                           'InLine' => 1,
                                           'Line' => '108',
                                           'MnglName' => '_ZNSt22_Optional_payload_baseI10__gmp_exprIA1_12__mpq_structS2_EEC1Ev',
                                           'Param' => {
                                                        '0' => {
                                                                 'name' => 'this',
                                                                 'type' => '433805'
                                                               }
                                                      },
                                           'ShortName' => '_Optional_payload_base'
                                         },
                            '1601167' => {
                                           'Artificial' => 1,
                                           'Class' => '273017',
                                           'Constructor' => 1,
                                           'Header' => 'optional',
                                           'InLine' => 1,
                                           'Line' => '218',
                                           'MnglName' => '_ZNSt22_Optional_payload_baseI10__gmp_exprIA1_12__mpq_structS2_EE8_StorageIS3_Lb0EEC2Ev',
                                           'Param' => {
                                                        '0' => {
                                                                 'name' => 'this',
                                                                 'type' => '433794'
                                                               }
                                                      },
                                           'ShortName' => '_Storage'
                                         },
                            '1601168' => {
                                           'Artificial' => 1,
                                           'Class' => '273017',
                                           'Constructor' => 1,
                                           'Header' => 'optional',
                                           'InLine' => 1,
                                           'Line' => '218',
                                           'MnglName' => '_ZNSt22_Optional_payload_baseI10__gmp_exprIA1_12__mpq_structS2_EE8_StorageIS3_Lb0EEC1Ev',
                                           'Param' => {
                                                        '0' => {
                                                                 'name' => 'this',
                                                                 'type' => '433794'
                                                               }
                                                      },
                                           'ShortName' => '_Storage'
                                         },
                            '2227310' => {
                                           'Artificial' => 1,
                                           'Class' => '257441',
                                           'Constructor' => 1,
                                           'Header' => 'shared_ptr_base.h',
                                           'InLine' => 1,
                                           'Line' => '1162',
                                           'MnglName' => '_ZNSt12__shared_ptrIKN9exactreal10RealNumberELN9__gnu_cxx12_Lock_policyE2EEC2IvEERKS_IT_LS4_2EEPS2_',
                                           'Param' => {
                                                        '0' => {
                                                                 'name' => 'this',
                                                                 'type' => '428658'
                                                               },
                                                        '1' => {
                                                                 'name' => '__r',
                                                                 'type' => '401438'
                                                               },
                                                        '2' => {
                                                                 'name' => '__p',
                                                                 'type' => '428681'
                                                               }
                                                      },
                                           'ShortName' => '__shared_ptr<void>',
                                           'TParam' => {
                                                         '0' => {
                                                                  'key' => '_Yp',
                                                                  'type' => '1'
                                                                }
                                                       }
                                         },
                            '2227311' => {
                                           'Artificial' => 1,
                                           'Class' => '257441',
                                           'Constructor' => 1,
                                           'Header' => 'shared_ptr_base.h',
                                           'InLine' => 1,
                                           'Line' => '1162',
                                           'MnglName' => '_ZNSt12__shared_ptrIKN9exactreal10RealNumberELN9__gnu_cxx12_Lock_policyE2EEC1IvEERKS_IT_LS4_2EEPS2_',
                                           'Param' => {
                                                        '0' => {
                                                                 'name' => 'this',
                                                                 'type' => '428658'
                                                               },
                                                        '1' => {
                                                                 'name' => '__r',
                                                                 'type' => '401438'
                                                               },
                                                        '2' => {
                                                                 'name' => '__p',
                                                                 'type' => '428681'
                                                               }
                                                      },
                                           'ShortName' => '__shared_ptr<void>',
                                           'TParam' => {
                                                         '0' => {
                                                                  'key' => '_Yp',
                                                                  'type' => '1'
                                                                }
                                                       }
                                         },
                            '2227609' => {
                                           'Artificial' => 1,
                                           'Class' => '145839',
                                           'Constructor' => 1,
                                           'Header' => 'shared_ptr_base.h',
                                           'InLine' => 1,
                                           'Line' => '1162',
                                           'MnglName' => '_ZNSt12__shared_ptrIvLN9__gnu_cxx12_Lock_policyE2EEC2IN9exactreal10RealNumberEEERKS_IT_LS1_2EEPv',
                                           'Param' => {
                                                        '0' => {
                                                                 'name' => 'this',
                                                                 'type' => '2081849'
                                                               },
                                                        '1' => {
                                                                 'name' => '__r',
                                                                 'type' => '428762'
                                                               },
                                                        '2' => {
                                                                 'name' => '__p',
                                                                 'type' => '401456'
                                                               }
                                                      },
                                           'ShortName' => '__shared_ptr<exactreal::RealNumber>',
                                           'TParam' => {
                                                         '0' => {
                                                                  'key' => '_Yp',
                                                                  'type' => '377229'
                                                                }
                                                       }
                                         },
                            '2227610' => {
                                           'Artificial' => 1,
                                           'Class' => '145839',
                                           'Constructor' => 1,
                                           'Header' => 'shared_ptr_base.h',
                                           'InLine' => 1,
                                           'Line' => '1162',
                                           'MnglName' => '_ZNSt12__shared_ptrIvLN9__gnu_cxx12_Lock_policyE2EEC1IN9exactreal10RealNumberEEERKS_IT_LS1_2EEPv',
                                           'Param' => {
                                                        '0' => {
                                                                 'name' => 'this',
                                                                 'type' => '2081849'
                                                               },
                                                        '1' => {
                                                                 'name' => '__r',
                                                                 'type' => '428762'
                                                               },
                                                        '2' => {
                                                                 'name' => '__p',
                                                                 'type' => '401456'
                                                               }
                                                      },
                                           'ShortName' => '__shared_ptr<exactreal::RealNumber>',
                                           'TParam' => {
                                                         '0' => {
                                                                  'key' => '_Yp',
                                                                  'type' => '377229'
                                                                }
                                                       }
                                         },
                            '2227710' => {
                                           'Artificial' => 1,
                                           'Class' => '83358',
                                           'Constructor' => 1,
                                           'Header' => 'shared_ptr_base.h',
                                           'InLine' => 1,
                                           'Line' => '1162',
                                           'MnglName' => '_ZNSt12__shared_ptrIN9exactreal10RealNumberELN9__gnu_cxx12_Lock_policyE2EEC2IKS1_EERKS_IT_LS3_2EEPS1_',
                                           'Param' => {
                                                        '0' => {
                                                                 'name' => 'this',
                                                                 'type' => '2191071'
                                                               },
                                                        '1' => {
                                                                 'name' => '__r',
                                                                 'type' => '428663'
                                                               },
                                                        '2' => {
                                                                 'name' => '__p',
                                                                 'type' => '428780'
                                                               }
                                                      },
                                           'ShortName' => '__shared_ptr<exactreal::RealNumber const>',
                                           'TParam' => {
                                                         '0' => {
                                                                  'key' => '_Yp',
                                                                  'type' => '378564'
                                                                }
                                                       }
                                         },
                            '2227711' => {
                                           'Artificial' => 1,
                                           'Class' => '83358',
                                           'Constructor' => 1,
                                           'Header' => 'shared_ptr_base.h',
                                           'InLine' => 1,
                                           'Line' => '1162',
                                           'MnglName' => '_ZNSt12__shared_ptrIN9exactreal10RealNumberELN9__gnu_cxx12_Lock_policyE2EEC1IKS1_EERKS_IT_LS3_2EEPS1_',
                                           'Param' => {
                                                        '0' => {
                                                                 'name' => 'this',
                                                                 'type' => '2191071'
                                                               },
                                                        '1' => {
                                                                 'name' => '__r',
                                                                 'type' => '428663'
                                                               },
                                                        '2' => {
                                                                 'name' => '__p',
                                                                 'type' => '428780'
                                                               }
                                                      },
                                           'ShortName' => '__shared_ptr<exactreal::RealNumber const>',
                                           'TParam' => {
                                                         '0' => {
                                                                  'key' => '_Yp',
                                                                  'type' => '378564'
                                                                }
                                                       }
                                         },
                            '2228438' => {
                                           'Artificial' => 1,
                                           'Class' => '84792',
                                           'Constructor' => 1,
                                           'Header' => 'shared_ptr.h',
                                           'InLine' => 1,
                                           'Line' => '234',
                                           'MnglName' => '_ZNSt10shared_ptrIKN9exactreal10RealNumberEEC2IvEERKS_IT_EPS2_',
                                           'Param' => {
                                                        '0' => {
                                                                 'name' => 'this',
                                                                 'type' => '428721'
                                                               },
                                                        '1' => {
                                                                 'name' => '__r',
                                                                 'type' => '401480'
                                                               },
                                                        '2' => {
                                                                 'name' => '__p',
                                                                 'type' => '2228378'
                                                               }
                                                      },
                                           'ShortName' => 'shared_ptr<void>',
                                           'TParam' => {
                                                         '0' => {
                                                                  'key' => '_Yp',
                                                                  'type' => '1'
                                                                }
                                                       }
                                         },
                            '2228439' => {
                                           'Artificial' => 1,
                                           'Class' => '84792',
                                           'Constructor' => 1,
                                           'Header' => 'shared_ptr.h',
                                           'InLine' => 1,
                                           'Line' => '234',
                                           'MnglName' => '_ZNSt10shared_ptrIKN9exactreal10RealNumberEEC1IvEERKS_IT_EPS2_',
                                           'Param' => {
                                                        '0' => {
                                                                 'name' => 'this',
                                                                 'type' => '428721'
                                                               },
                                                        '1' => {
                                                                 'name' => '__r',
                                                                 'type' => '401480'
                                                               },
                                                        '2' => {
                                                                 'name' => '__p',
                                                                 'type' => '2228378'
                                                               }
                                                      },
                                           'ShortName' => 'shared_ptr<void>',
                                           'TParam' => {
                                                         '0' => {
                                                                  'key' => '_Yp',
                                                                  'type' => '1'
                                                                }
                                                       }
                                         },
                            '2228677' => {
                                           'Artificial' => 1,
                                           'Class' => '141879',
                                           'Constructor' => 1,
                                           'Header' => 'shared_ptr.h',
                                           'InLine' => 1,
                                           'Line' => '307',
                                           'MnglName' => '_ZNSt10shared_ptrIvEC2EDn',
                                           'Param' => {
                                                        '0' => {
                                                                 'name' => 'this',
                                                                 'type' => '2081901'
                                                               },
                                                        '1' => {
                                                                 'name' => 'p1',
                                                                 'type' => '20018'
                                                               }
                                                      },
                                           'ShortName' => 'shared_ptr'
                                         },
                            '2228678' => {
                                           'Artificial' => 1,
                                           'Class' => '141879',
                                           'Constructor' => 1,
                                           'Header' => 'shared_ptr.h',
                                           'InLine' => 1,
                                           'Line' => '307',
                                           'MnglName' => '_ZNSt10shared_ptrIvEC1EDn',
                                           'Param' => {
                                                        '0' => {
                                                                 'name' => 'this',
                                                                 'type' => '2081901'
                                                               },
                                                        '1' => {
                                                                 'name' => 'p1',
                                                                 'type' => '20018'
                                                               }
                                                      },
                                           'ShortName' => 'shared_ptr'
                                         },
                            '2228729' => {
                                           'Artificial' => 1,
                                           'Class' => '141879',
                                           'Constructor' => 1,
                                           'Header' => 'shared_ptr.h',
                                           'InLine' => 1,
                                           'Line' => '127',
                                           'MnglName' => '_ZNSt10shared_ptrIvEC2Ev',
                                           'Param' => {
                                                        '0' => {
                                                                 'name' => 'this',
                                                                 'type' => '2081901'
                                                               }
                                                      },
                                           'ShortName' => 'shared_ptr'
                                         },
                            '2228730' => {
                                           'Artificial' => 1,
                                           'Class' => '141879',
                                           'Constructor' => 1,
                                           'Header' => 'shared_ptr.h',
                                           'InLine' => 1,
                                           'Line' => '127',
                                           'MnglName' => '_ZNSt10shared_ptrIvEC1Ev',
                                           'Param' => {
                                                        '0' => {
                                                                 'name' => 'this',
                                                                 'type' => '2081901'
                                                               }
                                                      },
                                           'ShortName' => 'shared_ptr'
                                         },
                            '2228776' => {
                                           'Artificial' => 1,
                                           'Class' => '145839',
                                           'Constructor' => 1,
                                           'Header' => 'shared_ptr_base.h',
                                           'InLine' => 1,
                                           'Line' => '1118',
                                           'MnglName' => '_ZNSt12__shared_ptrIvLN9__gnu_cxx12_Lock_policyE2EEC2Ev',
                                           'Param' => {
                                                        '0' => {
                                                                 'name' => 'this',
                                                                 'type' => '2081849'
                                                               }
                                                      },
                                           'ShortName' => '__shared_ptr'
                                         },
                            '2228777' => {
                                           'Artificial' => 1,
                                           'Class' => '145839',
                                           'Constructor' => 1,
                                           'Header' => 'shared_ptr_base.h',
                                           'InLine' => 1,
                                           'Line' => '1118',
                                           'MnglName' => '_ZNSt12__shared_ptrIvLN9__gnu_cxx12_Lock_policyE2EEC1Ev',
                                           'Param' => {
                                                        '0' => {
                                                                 'name' => 'this',
                                                                 'type' => '2081849'
                                                               }
                                                      },
                                           'ShortName' => '__shared_ptr'
                                         },
                            '2228949' => {
                                           'Artificial' => 1,
                                           'Class' => '141879',
                                           'Constructor' => 1,
                                           'Header' => 'shared_ptr.h',
                                           'InLine' => 1,
                                           'Line' => '234',
                                           'MnglName' => '_ZNSt10shared_ptrIvEC2IN9exactreal10RealNumberEEERKS_IT_EPv',
                                           'Param' => {
                                                        '0' => {
                                                                 'name' => 'this',
                                                                 'type' => '2081901'
                                                               },
                                                        '1' => {
                                                                 'name' => '__r',
                                                                 'type' => '428798'
                                                               },
                                                        '2' => {
                                                                 'name' => '__p',
                                                                 'type' => '2228886'
                                                               }
                                                      },
                                           'ShortName' => 'shared_ptr<exactreal::RealNumber>',
                                           'TParam' => {
                                                         '0' => {
                                                                  'key' => '_Yp',
                                                                  'type' => '377229'
                                                                }
                                                       }
                                         },
                            '2228950' => {
                                           'Artificial' => 1,
                                           'Class' => '141879',
                                           'Constructor' => 1,
                                           'Header' => 'shared_ptr.h',
                                           'InLine' => 1,
                                           'Line' => '234',
                                           'MnglName' => '_ZNSt10shared_ptrIvEC1IN9exactreal10RealNumberEEERKS_IT_EPv',
                                           'Param' => {
                                                        '0' => {
                                                                 'name' => 'this',
                                                                 'type' => '2081901'
                                                               },
                                                        '1' => {
                                                                 'name' => '__r',
                                                                 'type' => '428798'
                                                               },
                                                        '2' => {
                                                                 'name' => '__p',
                                                                 'type' => '2228886'
                                                               }
                                                      },
                                           'ShortName' => 'shared_ptr<exactreal::RealNumber>',
                                           'TParam' => {
                                                         '0' => {
                                                                  'key' => '_Yp',
                                                                  'type' => '377229'
                                                                }
                                                       }
                                         },
                            '2229078' => {
                                           'Artificial' => 1,
                                           'Class' => '84218',
                                           'Constructor' => 1,
                                           'Header' => 'shared_ptr.h',
                                           'InLine' => 1,
                                           'Line' => '234',
                                           'MnglName' => '_ZNSt10shared_ptrIN9exactreal10RealNumberEEC2IKS1_EERKS_IT_EPS1_',
                                           'Param' => {
                                                        '0' => {
                                                                 'name' => 'this',
                                                                 'type' => '2191117'
                                                               },
                                                        '1' => {
                                                                 'name' => '__r',
                                                                 'type' => '428611'
                                                               },
                                                        '2' => {
                                                                 'name' => '__p',
                                                                 'type' => '2229015'
                                                               }
                                                      },
                                           'ShortName' => 'shared_ptr<exactreal::RealNumber const>',
                                           'TParam' => {
                                                         '0' => {
                                                                  'key' => '_Yp',
                                                                  'type' => '378564'
                                                                }
                                                       }
                                         },
                            '2229079' => {
                                           'Artificial' => 1,
                                           'Class' => '84218',
                                           'Constructor' => 1,
                                           'Header' => 'shared_ptr.h',
                                           'InLine' => 1,
                                           'Line' => '234',
                                           'MnglName' => '_ZNSt10shared_ptrIN9exactreal10RealNumberEEC1IKS1_EERKS_IT_EPS1_',
                                           'Param' => {
                                                        '0' => {
                                                                 'name' => 'this',
                                                                 'type' => '2191117'
                                                               },
                                                        '1' => {
                                                                 'name' => '__r',
                                                                 'type' => '428611'
                                                               },
                                                        '2' => {
                                                                 'name' => '__p',
                                                                 'type' => '2229015'
                                                               }
                                                      },
                                           'ShortName' => 'shared_ptr<exactreal::RealNumber const>',
                                           'TParam' => {
                                                         '0' => {
                                                                  'key' => '_Yp',
                                                                  'type' => '378564'
                                                                }
                                                       }
                                         },
                            '2229597' => {
                                           'Artificial' => 1,
                                           'Class' => '141879',
                                           'Constructor' => 1,
                                           'Header' => 'shared_ptr.h',
                                           'InLine' => 1,
                                           'Line' => '129',
                                           'MnglName' => '_ZNSt10shared_ptrIvEC2ERKS0_',
                                           'Param' => {
                                                        '0' => {
                                                                 'name' => 'this',
                                                                 'type' => '2081901'
                                                               },
                                                        '1' => {
                                                                 'name' => 'p1',
                                                                 'type' => '401480'
                                                               }
                                                      },
                                           'ShortName' => 'shared_ptr'
                                         },
                            '2229598' => {
                                           'Artificial' => 1,
                                           'Class' => '141879',
                                           'Constructor' => 1,
                                           'Header' => 'shared_ptr.h',
                                           'InLine' => 1,
                                           'Line' => '129',
                                           'MnglName' => '_ZNSt10shared_ptrIvEC1ERKS0_',
                                           'Param' => {
                                                        '0' => {
                                                                 'name' => 'this',
                                                                 'type' => '2081901'
                                                               },
                                                        '1' => {
                                                                 'name' => 'p1',
                                                                 'type' => '401480'
                                                               }
                                                      },
                                           'ShortName' => 'shared_ptr'
                                         },
                            '2229654' => {
                                           'Artificial' => 1,
                                           'Class' => '145839',
                                           'Constructor' => 1,
                                           'Header' => 'shared_ptr_base.h',
                                           'InLine' => 1,
                                           'Line' => '1167',
                                           'MnglName' => '_ZNSt12__shared_ptrIvLN9__gnu_cxx12_Lock_policyE2EEC2ERKS2_',
                                           'Param' => {
                                                        '0' => {
                                                                 'name' => 'this',
                                                                 'type' => '2081849'
                                                               },
                                                        '1' => {
                                                                 'name' => 'p1',
                                                                 'type' => '401438'
                                                               }
                                                      },
                                           'ShortName' => '__shared_ptr'
                                         },
                            '2229655' => {
                                           'Artificial' => 1,
                                           'Class' => '145839',
                                           'Constructor' => 1,
                                           'Header' => 'shared_ptr_base.h',
                                           'InLine' => 1,
                                           'Line' => '1167',
                                           'MnglName' => '_ZNSt12__shared_ptrIvLN9__gnu_cxx12_Lock_policyE2EEC1ERKS2_',
                                           'Param' => {
                                                        '0' => {
                                                                 'name' => 'this',
                                                                 'type' => '2081849'
                                                               },
                                                        '1' => {
                                                                 'name' => 'p1',
                                                                 'type' => '401438'
                                                               }
                                                      },
                                           'ShortName' => '__shared_ptr'
                                         },
                            '2255837' => {
                                           'Artificial' => 1,
                                           'Class' => '84218',
                                           'Destructor' => 1,
                                           'Header' => 'shared_ptr.h',
                                           'InLine' => 1,
                                           'Line' => '103',
                                           'MnglName' => '_ZNSt10shared_ptrIN9exactreal10RealNumberEED2Ev',
                                           'Param' => {
                                                        '0' => {
                                                                 'name' => 'this',
                                                                 'type' => '2191117'
                                                               }
                                                      },
                                           'ShortName' => 'shared_ptr'
                                         },
                            '2255838' => {
                                           'Artificial' => 1,
                                           'Class' => '84218',
                                           'Destructor' => 1,
                                           'Header' => 'shared_ptr.h',
                                           'InLine' => 1,
                                           'Line' => '103',
                                           'MnglName' => '_ZNSt10shared_ptrIN9exactreal10RealNumberEED0Ev',
                                           'Param' => {
                                                        '0' => {
                                                                 'name' => 'this',
                                                                 'type' => '2191117'
                                                               }
                                                      },
                                           'ShortName' => 'shared_ptr'
                                         },
                            '2255893' => {
                                           'Artificial' => 1,
                                           'Class' => '83358',
                                           'Destructor' => 1,
                                           'Header' => 'shared_ptr_base.h',
                                           'InLine' => 1,
                                           'Line' => '1169',
                                           'MnglName' => '_ZNSt12__shared_ptrIN9exactreal10RealNumberELN9__gnu_cxx12_Lock_policyE2EED2Ev',
                                           'Param' => {
                                                        '0' => {
                                                                 'name' => 'this',
                                                                 'type' => '2191071'
                                                               }
                                                      },
                                           'ShortName' => '__shared_ptr'
                                         },
                            '2255894' => {
                                           'Artificial' => 1,
                                           'Class' => '83358',
                                           'Destructor' => 1,
                                           'Header' => 'shared_ptr_base.h',
                                           'InLine' => 1,
                                           'Line' => '1169',
                                           'MnglName' => '_ZNSt12__shared_ptrIN9exactreal10RealNumberELN9__gnu_cxx12_Lock_policyE2EED0Ev',
                                           'Param' => {
                                                        '0' => {
                                                                 'name' => 'this',
                                                                 'type' => '2191071'
                                                               }
                                                      },
                                           'ShortName' => '__shared_ptr'
                                         },
                            '2288180' => {
                                           'Artificial' => 1,
                                           'Class' => '141879',
                                           'Destructor' => 1,
                                           'Header' => 'shared_ptr.h',
                                           'InLine' => 1,
                                           'Line' => '103',
                                           'MnglName' => '_ZNSt10shared_ptrIvED2Ev',
                                           'Param' => {
                                                        '0' => {
                                                                 'name' => 'this',
                                                                 'type' => '2081901'
                                                               }
                                                      },
                                           'ShortName' => 'shared_ptr'
                                         },
                            '2288181' => {
                                           'Artificial' => 1,
                                           'Class' => '141879',
                                           'Destructor' => 1,
                                           'Header' => 'shared_ptr.h',
                                           'InLine' => 1,
                                           'Line' => '103',
                                           'MnglName' => '_ZNSt10shared_ptrIvED0Ev',
                                           'Param' => {
                                                        '0' => {
                                                                 'name' => 'this',
                                                                 'type' => '2081901'
                                                               }
                                                      },
                                           'ShortName' => 'shared_ptr'
                                         },
                            '2288236' => {
                                           'Artificial' => 1,
                                           'Class' => '145839',
                                           'Destructor' => 1,
                                           'Header' => 'shared_ptr_base.h',
                                           'InLine' => 1,
                                           'Line' => '1169',
                                           'MnglName' => '_ZNSt12__shared_ptrIvLN9__gnu_cxx12_Lock_policyE2EED2Ev',
                                           'Param' => {
                                                        '0' => {
                                                                 'name' => 'this',
                                                                 'type' => '2081849'
                                                               }
                                                      },
                                           'ShortName' => '__shared_ptr'
                                         },
                            '2288237' => {
                                           'Artificial' => 1,
                                           'Class' => '145839',
                                           'Destructor' => 1,
                                           'Header' => 'shared_ptr_base.h',
                                           'InLine' => 1,
                                           'Line' => '1169',
                                           'MnglName' => '_ZNSt12__shared_ptrIvLN9__gnu_cxx12_Lock_policyE2EED0Ev',
                                           'Param' => {
                                                        '0' => {
                                                                 'name' => 'this',
                                                                 'type' => '2081849'
                                                               }
                                                      },
                                           'ShortName' => '__shared_ptr'
                                         },
                            '2351429' => {
                                           'Artificial' => 1,
                                           'Class' => '274795',
                                           'Constructor' => 1,
                                           'Header' => 'optional',
                                           'InLine' => 1,
                                           'Line' => '113',
                                           'MnglName' => '_ZNSt22_Optional_payload_baseISt10shared_ptrIKN9exactreal10RealNumberEEEC2IJRKS4_EEESt10in_place_tDpOT_',
                                           'Param' => {
                                                        '0' => {
                                                                 'name' => 'this',
                                                                 'type' => '434030'
                                                               },
                                                        '1' => {
                                                                 'name' => '__tag',
                                                                 'type' => '19065'
                                                               },
                                                        '2' => {
                                                                 'name' => 'p2',
                                                                 'type' => '428611'
                                                               }
                                                      },
                                           'ShortName' => '_Optional_payload_base<std::shared_ptr<exactreal::RealNumber const>const&>',
                                           'TParam' => {
                                                         '0' => {
                                                                  'key' => undef,
                                                                  'type' => '428611'
                                                                }
                                                       }
                                         },
                            '2351430' => {
                                           'Artificial' => 1,
                                           'Class' => '274795',
                                           'Constructor' => 1,
                                           'Header' => 'optional',
                                           'InLine' => 1,
                                           'Line' => '113',
                                           'MnglName' => '_ZNSt22_Optional_payload_baseISt10shared_ptrIKN9exactreal10RealNumberEEEC1IJRKS4_EEESt10in_place_tDpOT_',
                                           'Param' => {
                                                        '0' => {
                                                                 'name' => 'this',
                                                                 'type' => '434030'
                                                               },
                                                        '1' => {
                                                                 'name' => '__tag',
                                                                 'type' => '19065'
                                                               },
                                                        '2' => {
                                                                 'name' => 'p2',
                                                                 'type' => '428611'
                                                               }
                                                      },
                                           'ShortName' => '_Optional_payload_base<std::shared_ptr<exactreal::RealNumber const>const&>',
                                           'TParam' => {
                                                         '0' => {
                                                                  'key' => undef,
                                                                  'type' => '428611'
                                                                }
                                                       }
                                         },
                            '2351536' => {
                                           'Artificial' => 1,
                                           'Class' => '274817',
                                           'Constructor' => 1,
                                           'Header' => 'optional',
                                           'InLine' => 1,
                                           'Line' => '222',
                                           'MnglName' => '_ZNSt22_Optional_payload_baseISt10shared_ptrIKN9exactreal10RealNumberEEE8_StorageIS4_Lb0EEC2IJRKS4_EEESt10in_place_tDpOT_',
                                           'Param' => {
                                                        '0' => {
                                                                 'name' => 'this',
                                                                 'type' => '434019'
                                                               },
                                                        '1' => {
                                                                 'name' => 'p1',
                                                                 'type' => '19065'
                                                               },
                                                        '2' => {
                                                                 'name' => 'p2',
                                                                 'type' => '428611'
                                                               }
                                                      },
                                           'ShortName' => '_Storage<std::shared_ptr<exactreal::RealNumber const>const&>',
                                           'TParam' => {
                                                         '0' => {
                                                                  'key' => undef,
                                                                  'type' => '428611'
                                                                }
                                                       }
                                         },
                            '2351537' => {
                                           'Artificial' => 1,
                                           'Class' => '274817',
                                           'Constructor' => 1,
                                           'Header' => 'optional',
                                           'InLine' => 1,
                                           'Line' => '222',
                                           'MnglName' => '_ZNSt22_Optional_payload_baseISt10shared_ptrIKN9exactreal10RealNumberEEE8_StorageIS4_Lb0EEC1IJRKS4_EEESt10in_place_tDpOT_',
                                           'Param' => {
                                                        '0' => {
                                                                 'name' => 'this',
                                                                 'type' => '434019'
                                                               },
                                                        '1' => {
                                                                 'name' => 'p1',
                                                                 'type' => '19065'
                                                               },
                                                        '2' => {
                                                                 'name' => 'p2',
                                                                 'type' => '428611'
                                                               }
                                                      },
                                           'ShortName' => '_Storage<std::shared_ptr<exactreal::RealNumber const>const&>',
                                           'TParam' => {
                                                         '0' => {
                                                                  'key' => undef,
                                                                  'type' => '428611'
                                                                }
                                                       }
                                         },
                            '2402159' => {
                                           'Artificial' => 1,
                                           'Class' => '276409',
                                           'Constructor' => 1,
                                           'Header' => 'optional',
                                           'InLine' => 1,
                                           'Line' => '698',
                                           'MnglName' => '_ZNSt8optionalISt10shared_ptrIKN9exactreal10RealNumberEEEC2IRKS4_Lb1EEEOT_',
                                           'Param' => {
                                                        '0' => {
                                                                 'name' => 'this',
                                                                 'type' => '434152'
                                                               },
                                                        '1' => {
                                                                 'name' => '__t',
                                                                 'type' => '428611'
                                                               }
                                                      },
                                           'ShortName' => 'optional<std::shared_ptr<exactreal::RealNumber const>const&>',
                                           'TParam' => {
                                                         '0' => {
                                                                  'key' => '_Up',
                                                                  'type' => '428611'
                                                                }
                                                       }
                                         },
                            '2402160' => {
                                           'Artificial' => 1,
                                           'Class' => '276409',
                                           'Constructor' => 1,
                                           'Header' => 'optional',
                                           'InLine' => 1,
                                           'Line' => '698',
                                           'MnglName' => '_ZNSt8optionalISt10shared_ptrIKN9exactreal10RealNumberEEEC1IRKS4_Lb1EEEOT_',
                                           'Param' => {
                                                        '0' => {
                                                                 'name' => 'this',
                                                                 'type' => '434152'
                                                               },
                                                        '1' => {
                                                                 'name' => '__t',
                                                                 'type' => '428611'
                                                               }
                                                      },
                                           'ShortName' => 'optional<std::shared_ptr<exactreal::RealNumber const>const&>',
                                           'TParam' => {
                                                         '0' => {
                                                                  'key' => '_Up',
                                                                  'type' => '428611'
                                                                }
                                                       }
                                         },
                            '2402251' => {
                                           'Artificial' => 1,
                                           'Class' => '276078',
                                           'Constructor' => 1,
                                           'Header' => 'optional',
                                           'InLine' => 1,
                                           'Line' => '480',
                                           'MnglName' => '_ZNSt14_Optional_baseISt10shared_ptrIKN9exactreal10RealNumberEELb0ELb0EEC2IJRKS4_ELb0EEESt10in_place_tDpOT_',
                                           'Param' => {
                                                        '0' => {
                                                                 'name' => 'this',
                                                                 'type' => '434123'
                                                               },
                                                        '1' => {
                                                                 'name' => 'p1',
                                                                 'type' => '19065'
                                                               },
                                                        '2' => {
                                                                 'name' => 'p2',
                                                                 'type' => '428611'
                                                               }
                                                      },
                                           'ShortName' => '_Optional_base<std::shared_ptr<exactreal::RealNumber const>const&>',
                                           'TParam' => {
                                                         '0' => {
                                                                  'key' => undef,
                                                                  'type' => '428611'
                                                                }
                                                       }
                                         },
                            '2402252' => {
                                           'Artificial' => 1,
                                           'Class' => '276078',
                                           'Constructor' => 1,
                                           'Header' => 'optional',
                                           'InLine' => 1,
                                           'Line' => '480',
                                           'MnglName' => '_ZNSt14_Optional_baseISt10shared_ptrIKN9exactreal10RealNumberEELb0ELb0EEC1IJRKS4_ELb0EEESt10in_place_tDpOT_',
                                           'Param' => {
                                                        '0' => {
                                                                 'name' => 'this',
                                                                 'type' => '434123'
                                                               },
                                                        '1' => {
                                                                 'name' => 'p1',
                                                                 'type' => '19065'
                                                               },
                                                        '2' => {
                                                                 'name' => 'p2',
                                                                 'type' => '428611'
                                                               }
                                                      },
                                           'ShortName' => '_Optional_base<std::shared_ptr<exactreal::RealNumber const>const&>',
                                           'TParam' => {
                                                         '0' => {
                                                                  'key' => undef,
                                                                  'type' => '428611'
                                                                }
                                                       }
                                         },
                            '2411197' => {
                                           'Artificial' => 1,
                                           'Class' => '409380',
                                           'Constructor' => 1,
                                           'Header' => 'document.h',
                                           'InLine' => 1,
                                           'Line' => '138',
                                           'MnglName' => '_ZN9rapidjson21GenericMemberIteratorILb1ENS_4UTF8IcEENS_19MemoryPoolAllocatorINS_12CrtAllocatorEEEEC2Ev',
                                           'Param' => {
                                                        '0' => {
                                                                 'name' => 'this',
                                                                 'type' => '421836'
                                                               }
                                                      },
                                           'ShortName' => 'GenericMemberIterator'
                                         },
                            '2411198' => {
                                           'Artificial' => 1,
                                           'Class' => '409380',
                                           'Constructor' => 1,
                                           'Header' => 'document.h',
                                           'InLine' => 1,
                                           'Line' => '138',
                                           'MnglName' => '_ZN9rapidjson21GenericMemberIteratorILb1ENS_4UTF8IcEENS_19MemoryPoolAllocatorINS_12CrtAllocatorEEEEC1Ev',
                                           'Param' => {
                                                        '0' => {
                                                                 'name' => 'this',
                                                                 'type' => '421836'
                                                               }
                                                      },
                                           'ShortName' => 'GenericMemberIterator'
                                         },
                            '2496952' => {
                                           'Artificial' => 1,
                                           'Class' => '84792',
                                           'Constructor' => 1,
                                           'Header' => 'shared_ptr.h',
                                           'InLine' => 1,
                                           'Line' => '129',
                                           'MnglName' => '_ZNSt10shared_ptrIKN9exactreal10RealNumberEEC2ERKS3_',
                                           'Param' => {
                                                        '0' => {
                                                                 'name' => 'this',
                                                                 'type' => '428721'
                                                               },
                                                        '1' => {
                                                                 'name' => 'p1',
                                                                 'type' => '428611'
                                                               }
                                                      },
                                           'ShortName' => 'shared_ptr'
                                         },
                            '2496953' => {
                                           'Artificial' => 1,
                                           'Class' => '84792',
                                           'Constructor' => 1,
                                           'Header' => 'shared_ptr.h',
                                           'InLine' => 1,
                                           'Line' => '129',
                                           'MnglName' => '_ZNSt10shared_ptrIKN9exactreal10RealNumberEEC1ERKS3_',
                                           'Param' => {
                                                        '0' => {
                                                                 'name' => 'this',
                                                                 'type' => '428721'
                                                               },
                                                        '1' => {
                                                                 'name' => 'p1',
                                                                 'type' => '428611'
                                                               }
                                                      },
                                           'ShortName' => 'shared_ptr'
                                         },
                            '2497009' => {
                                           'Artificial' => 1,
                                           'Class' => '257441',
                                           'Constructor' => 1,
                                           'Header' => 'shared_ptr_base.h',
                                           'InLine' => 1,
                                           'Line' => '1167',
                                           'MnglName' => '_ZNSt12__shared_ptrIKN9exactreal10RealNumberELN9__gnu_cxx12_Lock_policyE2EEC2ERKS5_',
                                           'Param' => {
                                                        '0' => {
                                                                 'name' => 'this',
                                                                 'type' => '428658'
                                                               },
                                                        '1' => {
                                                                 'name' => 'p1',
                                                                 'type' => '428663'
                                                               }
                                                      },
                                           'ShortName' => '__shared_ptr'
                                         },
                            '2497010' => {
                                           'Artificial' => 1,
                                           'Class' => '257441',
                                           'Constructor' => 1,
                                           'Header' => 'shared_ptr_base.h',
                                           'InLine' => 1,
                                           'Line' => '1167',
                                           'MnglName' => '_ZNSt12__shared_ptrIKN9exactreal10RealNumberELN9__gnu_cxx12_Lock_policyE2EEC1ERKS5_',
                                           'Param' => {
                                                        '0' => {
                                                                 'name' => 'this',
                                                                 'type' => '428658'
                                                               },
                                                        '1' => {
                                                                 'name' => 'p1',
                                                                 'type' => '428663'
                                                               }
                                                      },
                                           'ShortName' => '__shared_ptr'
                                         },
                            '2545651' => {
                                           'Artificial' => 1,
                                           'Class' => '392794',
                                           'Constructor' => 1,
                                           'Header' => 'json.hpp',
                                           'InLine' => 1,
                                           'Line' => '492',
                                           'MnglName' => '_ZN6cereal16JSONInputArchive8IteratorC2EPKN9rapidjson12GenericValueINS2_4UTF8IcEENS2_19MemoryPoolAllocatorINS2_12CrtAllocatorEEEEESB_',
                                           'Param' => {
                                                        '0' => {
                                                                 'name' => 'this',
                                                                 'type' => '422027'
                                                               },
                                                        '1' => {
                                                                 'name' => 'begin',
                                                                 'type' => '393169'
                                                               },
                                                        '2' => {
                                                                 'name' => 'end',
                                                                 'type' => '393169'
                                                               }
                                                      },
                                           'ShortName' => 'Iterator'
                                         },
                            '2545652' => {
                                           'Artificial' => 1,
                                           'Class' => '392794',
                                           'Constructor' => 1,
                                           'Header' => 'json.hpp',
                                           'InLine' => 1,
                                           'Line' => '492',
                                           'MnglName' => '_ZN6cereal16JSONInputArchive8IteratorC1EPKN9rapidjson12GenericValueINS2_4UTF8IcEENS2_19MemoryPoolAllocatorINS2_12CrtAllocatorEEEEESB_',
                                           'Param' => {
                                                        '0' => {
                                                                 'name' => 'this',
                                                                 'type' => '422027'
                                                               },
                                                        '1' => {
                                                                 'name' => 'begin',
                                                                 'type' => '393169'
                                                               },
                                                        '2' => {
                                                                 'name' => 'end',
                                                                 'type' => '393169'
                                                               }
                                                      },
                                           'ShortName' => 'Iterator'
                                         },
                            '2545827' => {
                                           'Artificial' => 1,
                                           'Class' => '392794',
                                           'Constructor' => 1,
                                           'Header' => 'json.hpp',
                                           'InLine' => 1,
                                           'Line' => '485',
                                           'MnglName' => '_ZN6cereal16JSONInputArchive8IteratorC2EN9rapidjson21GenericMemberIteratorILb1ENS2_4UTF8IcEENS2_19MemoryPoolAllocatorINS2_12CrtAllocatorEEEEES9_',
                                           'Param' => {
                                                        '0' => {
                                                                 'name' => 'this',
                                                                 'type' => '422027'
                                                               },
                                                        '1' => {
                                                                 'name' => 'begin',
                                                                 'type' => '393156'
                                                               },
                                                        '2' => {
                                                                 'name' => 'end',
                                                                 'type' => '393156'
                                                               }
                                                      },
                                           'ShortName' => 'Iterator'
                                         },
                            '2545828' => {
                                           'Artificial' => 1,
                                           'Class' => '392794',
                                           'Constructor' => 1,
                                           'Header' => 'json.hpp',
                                           'InLine' => 1,
                                           'Line' => '485',
                                           'MnglName' => '_ZN6cereal16JSONInputArchive8IteratorC1EN9rapidjson21GenericMemberIteratorILb1ENS2_4UTF8IcEENS2_19MemoryPoolAllocatorINS2_12CrtAllocatorEEEEES9_',
                                           'Param' => {
                                                        '0' => {
                                                                 'name' => 'this',
                                                                 'type' => '422027'
                                                               },
                                                        '1' => {
                                                                 'name' => 'begin',
                                                                 'type' => '393156'
                                                               },
                                                        '2' => {
                                                                 'name' => 'end',
                                                                 'type' => '393156'
                                                               }
                                                      },
                                           'ShortName' => 'Iterator'
                                         },
                            '2749757' => {
                                           'Class' => '2749744',
                                           'Const' => 1,
                                           'Header' => 'element.hpp',
                                           'InLine' => 2,
                                           'MnglName' => '_ZNKSt4hashIN9exactreal7ElementINS0_11IntegerRingEEEEclERKS3_',
                                           'Param' => {
                                                        '0' => {
                                                                 'name' => 'this',
                                                                 'type' => '3077157'
                                                               },
                                                        '1' => {
                                                                 'name' => 'x',
                                                                 'type' => '3073681'
                                                               }
                                                      },
                                           'Return' => '18537',
                                           'ShortName' => 'operator()',
                                           'Source' => 'element.cc',
                                           'SourceLine' => '721'
                                         },
                            '2749821' => {
                                           'Class' => '2749808',
                                           'Const' => 1,
                                           'Header' => 'element.hpp',
                                           'InLine' => 2,
                                           'MnglName' => '_ZNKSt4hashIN9exactreal7ElementINS0_13RationalFieldEEEEclERKS3_',
                                           'Param' => {
                                                        '0' => {
                                                                 'name' => 'this',
                                                                 'type' => '3077168'
                                                               },
                                                        '1' => {
                                                                 'name' => 'x',
                                                                 'type' => '3074646'
                                                               }
                                                      },
                                           'Return' => '18537',
                                           'ShortName' => 'operator()',
                                           'Source' => 'element.cc',
                                           'SourceLine' => '721'
                                         },
                            '2749885' => {
                                           'Class' => '2749872',
                                           'Const' => 1,
                                           'Header' => 'element.hpp',
                                           'InLine' => 2,
                                           'MnglName' => '_ZNKSt4hashIN9exactreal7ElementINS0_11NumberFieldEEEEclERKS3_',
                                           'Param' => {
                                                        '0' => {
                                                                 'name' => 'this',
                                                                 'type' => '3077179'
                                                               },
                                                        '1' => {
                                                                 'name' => 'x',
                                                                 'type' => '3076787'
                                                               }
                                                      },
                                           'Return' => '18537',
                                           'ShortName' => 'operator()',
                                           'Source' => 'element.cc',
                                           'SourceLine' => '721'
                                         },
                            '3040803' => {
                                           'Class' => '382005',
                                           'Const' => 1,
                                           'Header' => 'arb.hpp',
                                           'InLine' => 2,
                                           'Line' => '117',
                                           'MnglName' => '_ZNK9exactreal3ArbneIiLi0EEESt8optionalIbET_',
                                           'Param' => {
                                                        '0' => {
                                                                 'name' => 'this',
                                                                 'type' => '5219400'
                                                               },
                                                        '1' => {
                                                                 'name' => 'rhs',
                                                                 'type' => '311707'
                                                               }
                                                      },
                                           'Private' => 1,
                                           'Return' => '85414',
                                           'ShortName' => 'operator!=<int>',
                                           'Source' => 'arb.cc',
                                           'SourceLine' => '230',
                                           'TParam' => {
                                                         '0' => {
                                                                  'key' => 'Integer',
                                                                  'type' => '311699'
                                                                }
                                                       }
                                         },
                            '3040817' => {
                                           'Class' => '382005',
                                           'Const' => 1,
                                           'Header' => 'arb.hpp',
                                           'InLine' => 2,
                                           'Line' => '107',
                                           'MnglName' => '_ZNK9exactreal3ArbltIxLi0EEESt8optionalIbET_',
                                           'Param' => {
                                                        '0' => {
                                                                 'name' => 'this',
                                                                 'type' => '5219400'
                                                               },
                                                        '1' => {
                                                                 'name' => 'rhs',
                                                                 'type' => '313969'
                                                               }
                                                      },
                                           'Private' => 1,
                                           'Return' => '85414',
                                           'ShortName' => 'operator< <long long>',
                                           'Source' => 'arb.cc',
                                           'SourceLine' => '215',
                                           'TParam' => {
                                                         '0' => {
                                                                  'key' => 'Integer',
                                                                  'type' => '313961'
                                                                }
                                                       }
                                         },
                            '3041169' => {
                                           'Class' => '377229',
                                           'Const' => 1,
                                           'Header' => 'real_number.hpp',
                                           'InLine' => 2,
                                           'Line' => '136',
                                           'MnglName' => '_ZNK9exactreal10RealNumbereqIiEENSt9enable_ifIX13is_integral_vIT_EEbE4typeES3_',
                                           'Param' => {
                                                        '0' => {
                                                                 'name' => 'this',
                                                                 'type' => '428710'
                                                               },
                                                        '1' => {
                                                                 'name' => 'rhs',
                                                                 'type' => '311699'
                                                               }
                                                      },
                                           'Return' => '289810',
                                           'ShortName' => 'operator==<int>',
                                           'TParam' => {
                                                         '0' => {
                                                                  'key' => 'Integer',
                                                                  'type' => '311699'
                                                                }
                                                       }
                                         },
                            '3045468' => {
                                           'Class' => '3045166',
                                           'Const' => 1,
                                           'Header' => 'element.hpp',
                                           'InLine' => 2,
                                           'Line' => '60',
                                           'MnglName' => '_ZNK9exactreal7ElementINS_11IntegerRingEEixEl',
                                           'Param' => {
                                                        '0' => {
                                                                 'name' => 'this',
                                                                 'type' => '3073664'
                                                               },
                                                        '1' => {
                                                                 'name' => 'i',
                                                                 'type' => '3047008'
                                                               }
                                                      },
                                           'Return' => '383535',
                                           'ShortName' => 'operator[]',
                                           'Source' => 'element.cc',
                                           'SourceLine' => '130'
                                         },
                            '3045540' => {
                                           'Class' => '3045166',
                                           'Const' => 1,
                                           'Header' => 'element.hpp',
                                           'InLine' => 2,
                                           'Line' => '70',
                                           'MnglName' => '_ZNK9exactreal7ElementINS_11IntegerRingEE3arbEl',
                                           'Param' => {
                                                        '0' => {
                                                                 'name' => 'this',
                                                                 'type' => '3073664'
                                                               },
                                                        '1' => {
                                                                 'name' => 'accuracy',
                                                                 'type' => '313286'
                                                               }
                                                      },
                                           'Return' => '382005',
                                           'ShortName' => 'arb',
                                           'Source' => 'element.cc',
                                           'SourceLine' => '163'
                                         },
                            '3045577' => {
                                           'Class' => '3045166',
                                           'Header' => 'element.hpp',
                                           'InLine' => 2,
                                           'Line' => '72',
                                           'MnglName' => '_ZN9exactreal7ElementINS_11IntegerRingEEpLERKS2_',
                                           'Param' => {
                                                        '0' => {
                                                                 'name' => 'this',
                                                                 'type' => '3073647'
                                                               },
                                                        '1' => {
                                                                 'name' => 'rhs',
                                                                 'type' => '3073681'
                                                               }
                                                      },
                                           'Return' => '3073675',
                                           'ShortName' => 'operator+=',
                                           'Source' => 'element.cc',
                                           'SourceLine' => '183'
                                         },
                            '3045613' => {
                                           'Class' => '3045166',
                                           'Header' => 'element.hpp',
                                           'InLine' => 2,
                                           'Line' => '73',
                                           'MnglName' => '_ZN9exactreal7ElementINS_11IntegerRingEEmIERKS2_',
                                           'Param' => {
                                                        '0' => {
                                                                 'name' => 'this',
                                                                 'type' => '3073647'
                                                               },
                                                        '1' => {
                                                                 'name' => 'rhs',
                                                                 'type' => '3073681'
                                                               }
                                                      },
                                           'Return' => '3073675',
                                           'ShortName' => 'operator-=',
                                           'Source' => 'element.cc',
                                           'SourceLine' => '196'
                                         },
                            '3045649' => {
                                           'Class' => '3045166',
                                           'Header' => 'element.hpp',
                                           'InLine' => 2,
                                           'Line' => '74',
                                           'MnglName' => '_ZN9exactreal7ElementINS_11IntegerRingEEmLERKS2_',
                                           'Param' => {
                                                        '0' => {
                                                                 'name' => 'this',
                                                                 'type' => '3073647'
                                                               },
                                                        '1' => {
                                                                 'name' => 'rhs',
                                                                 'type' => '3073681'
                                                               }
                                                      },
                                           'Return' => '3073675',
                                           'ShortName' => 'operator*=',
                                           'Source' => 'element.cc',
                                           'SourceLine' => '201'
                                         },
                            '3045685' => {
                                           'Class' => '3045166',
                                           'Header' => 'element.hpp',
                                           'InLine' => 2,
                                           'Line' => '75',
                                           'MnglName' => '_ZN9exactreal7ElementINS_11IntegerRingEEmLERKNS_10RealNumberE',
                                           'Param' => {
                                                        '0' => {
                                                                 'name' => 'this',
                                                                 'type' => '3073647'
                                                               },
                                                        '1' => {
                                                                 'name' => 'rhs',
                                                                 'type' => '436411'
                                                               }
                                                      },
                                           'Return' => '3073675',
                                           'ShortName' => 'operator*=',
                                           'Source' => 'element.cc',
                                           'SourceLine' => '243'
                                         },
                            '3045721' => {
                                           'Class' => '3045166',
                                           'Const' => 1,
                                           'Header' => 'element.hpp',
                                           'InLine' => 2,
                                           'Line' => '76',
                                           'MnglName' => '_ZNK9exactreal7ElementINS_11IntegerRingEEngEv',
                                           'Param' => {
                                                        '0' => {
                                                                 'name' => 'this',
                                                                 'type' => '3073664'
                                                               }
                                                      },
                                           'Return' => '3045166',
                                           'ShortName' => 'operator-',
                                           'Source' => 'element.cc',
                                           'SourceLine' => '248'
                                         },
                            '3045752' => {
                                           'Class' => '3045166',
                                           'Const' => 1,
                                           'Header' => 'element.hpp',
                                           'InLine' => 2,
                                           'Line' => '86',
                                           'MnglName' => '_ZNK9exactreal7ElementINS_11IntegerRingEE7truedivERKS2_',
                                           'Param' => {
                                                        '0' => {
                                                                 'name' => 'this',
                                                                 'type' => '3073664'
                                                               },
                                                        '1' => {
                                                                 'name' => 'rhs',
                                                                 'type' => '3073681'
                                                               }
                                                      },
                                           'Return' => '2712425',
                                           'ShortName' => 'truediv',
                                           'Source' => 'element.cc',
                                           'SourceLine' => '276'
                                         },
                            '3045788' => {
                                           'Class' => '3045166',
                                           'Const' => 1,
                                           'Header' => 'element.hpp',
                                           'InLine' => 2,
                                           'Line' => '87',
                                           'MnglName' => '_ZNK9exactreal7ElementINS_11IntegerRingEE8floordivERKS2_',
                                           'Param' => {
                                                        '0' => {
                                                                 'name' => 'this',
                                                                 'type' => '3073664'
                                                               },
                                                        '1' => {
                                                                 'name' => 'rhs',
                                                                 'type' => '3073681'
                                                               }
                                                      },
                                           'Return' => '333325',
                                           'ShortName' => 'floordiv',
                                           'Source' => 'element.cc',
                                           'SourceLine' => '325'
                                         },
                            '3045824' => {
                                           'Class' => '3045166',
                                           'Const' => 1,
                                           'Header' => 'element.hpp',
                                           'InLine' => 2,
                                           'Line' => '90',
                                           'MnglName' => '_ZNK9exactreal7ElementINS_11IntegerRingEE4unitEv',
                                           'Param' => {
                                                        '0' => {
                                                                 'name' => 'this',
                                                                 'type' => '3073664'
                                                               }
                                                      },
                                           'Return' => '314462',
                                           'ShortName' => 'unit',
                                           'Source' => 'element.cc',
                                           'SourceLine' => '380'
                                         },
                            '3045855' => {
                                           'Class' => '3045166',
                                           'Const' => 1,
                                           'Header' => 'element.hpp',
                                           'InLine' => 2,
                                           'Line' => '92',
                                           'MnglName' => '_ZNK9exactreal7ElementINS_11IntegerRingEE5floorEv',
                                           'Param' => {
                                                        '0' => {
                                                                 'name' => 'this',
                                                                 'type' => '3073664'
                                                               }
                                                      },
                                           'Return' => '333325',
                                           'ShortName' => 'floor',
                                           'Source' => 'element.cc',
                                           'SourceLine' => '398'
                                         },
                            '3045886' => {
                                           'Class' => '3045166',
                                           'Const' => 1,
                                           'Header' => 'element.hpp',
                                           'InLine' => 2,
                                           'Line' => '93',
                                           'MnglName' => '_ZNK9exactreal7ElementINS_11IntegerRingEE4ceilEv',
                                           'Param' => {
                                                        '0' => {
                                                                 'name' => 'this',
                                                                 'type' => '3073664'
                                                               }
                                                      },
                                           'Return' => '333325',
                                           'ShortName' => 'ceil',
                                           'Source' => 'element.cc',
                                           'SourceLine' => '412'
                                         },
                            '3045917' => {
                                           'Class' => '3045166',
                                           'Const' => 1,
                                           'Header' => 'element.hpp',
                                           'InLine' => 2,
                                           'Line' => '95',
                                           'MnglName' => '_ZNK9exactreal7ElementINS_11IntegerRingEEeqERKS2_',
                                           'Param' => {
                                                        '0' => {
                                                                 'name' => 'this',
                                                                 'type' => '3073664'
                                                               },
                                                        '1' => {
                                                                 'name' => 'rhs',
                                                                 'type' => '3073681'
                                                               }
                                                      },
                                           'Return' => '314462',
                                           'ShortName' => 'operator==',
                                           'Source' => 'element.cc',
                                           'SourceLine' => '519'
                                         },
                            '3045953' => {
                                           'Class' => '3045166',
                                           'Const' => 1,
                                           'Header' => 'element.hpp',
                                           'InLine' => 2,
                                           'Line' => '96',
                                           'MnglName' => '_ZNK9exactreal7ElementINS_11IntegerRingEEltERKS2_',
                                           'Param' => {
                                                        '0' => {
                                                                 'name' => 'this',
                                                                 'type' => '3073664'
                                                               },
                                                        '1' => {
                                                                 'name' => 'rhs',
                                                                 'type' => '3073681'
                                                               }
                                                      },
                                           'Return' => '314462',
                                           'ShortName' => 'operator<',
                                           'Source' => 'element.cc',
                                           'SourceLine' => '426'
                                         },
                            '3045989' => {
                                           'Class' => '3045166',
                                           'Const' => 1,
                                           'Header' => 'element.hpp',
                                           'InLine' => 2,
                                           'Line' => '98',
                                           'MnglName' => '_ZNK9exactreal7ElementINS_11IntegerRingEEeqERKNS_10RealNumberE',
                                           'Param' => {
                                                        '0' => {
                                                                 'name' => 'this',
                                                                 'type' => '3073664'
                                                               },
                                                        '1' => {
                                                                 'name' => 'rhs',
                                                                 'type' => '436411'
                                                               }
                                                      },
                                           'Return' => '314462',
                                           'ShortName' => 'operator==',
                                           'Source' => 'element.cc',
                                           'SourceLine' => '529'
                                         },
                            '3046025' => {
                                           'Class' => '3045166',
                                           'Const' => 1,
                                           'Header' => 'element.hpp',
                                           'InLine' => 2,
                                           'Line' => '99',
                                           'MnglName' => '_ZNK9exactreal7ElementINS_11IntegerRingEEltERKNS_10RealNumberE',
                                           'Param' => {
                                                        '0' => {
                                                                 'name' => 'this',
                                                                 'type' => '3073664'
                                                               },
                                                        '1' => {
                                                                 'name' => 'rhs',
                                                                 'type' => '436411'
                                                               }
                                                      },
                                           'Return' => '314462',
                                           'ShortName' => 'operator<',
                                           'Source' => 'element.cc',
                                           'SourceLine' => '461'
                                         },
                            '3046061' => {
                                           'Class' => '3045166',
                                           'Const' => 1,
                                           'Header' => 'element.hpp',
                                           'InLine' => 2,
                                           'Line' => '100',
                                           'MnglName' => '_ZNK9exactreal7ElementINS_11IntegerRingEEgtERKNS_10RealNumberE',
                                           'Param' => {
                                                        '0' => {
                                                                 'name' => 'this',
                                                                 'type' => '3073664'
                                                               },
                                                        '1' => {
                                                                 'name' => 'rhs',
                                                                 'type' => '436411'
                                                               }
                                                      },
                                           'Return' => '314462',
                                           'ShortName' => 'operator>',
                                           'Source' => 'element.cc',
                                           'SourceLine' => '466'
                                         },
                            '3046097' => {
                                           'Class' => '3045166',
                                           'Const' => 1,
                                           'Header' => 'element.hpp',
                                           'InLine' => 2,
                                           'Line' => '102',
                                           'MnglName' => '_ZNK9exactreal7ElementINS_11IntegerRingEEeqERK10__gmp_exprIA1_12__mpq_structS5_E',
                                           'Param' => {
                                                        '0' => {
                                                                 'name' => 'this',
                                                                 'type' => '3073664'
                                                               },
                                                        '1' => {
                                                                 'name' => 'rhs',
                                                                 'type' => '385562'
                                                               }
                                                      },
                                           'Return' => '314462',
                                           'ShortName' => 'operator==',
                                           'Source' => 'element.cc',
                                           'SourceLine' => '481'
                                         },
                            '3046133' => {
                                           'Class' => '3045166',
                                           'Const' => 1,
                                           'Header' => 'element.hpp',
                                           'InLine' => 2,
                                           'Line' => '103',
                                           'MnglName' => '_ZNK9exactreal7ElementINS_11IntegerRingEEltERK10__gmp_exprIA1_12__mpq_structS5_E',
                                           'Param' => {
                                                        '0' => {
                                                                 'name' => 'this',
                                                                 'type' => '3073664'
                                                               },
                                                        '1' => {
                                                                 'name' => 'rhs',
                                                                 'type' => '385562'
                                                               }
                                                      },
                                           'Return' => '314462',
                                           'ShortName' => 'operator<',
                                           'Source' => 'element.cc',
                                           'SourceLine' => '431'
                                         },
                            '3046169' => {
                                           'Class' => '3045166',
                                           'Const' => 1,
                                           'Header' => 'element.hpp',
                                           'InLine' => 2,
                                           'Line' => '104',
                                           'MnglName' => '_ZNK9exactreal7ElementINS_11IntegerRingEEgtERK10__gmp_exprIA1_12__mpq_structS5_E',
                                           'Param' => {
                                                        '0' => {
                                                                 'name' => 'this',
                                                                 'type' => '3073664'
                                                               },
                                                        '1' => {
                                                                 'name' => 'rhs',
                                                                 'type' => '385562'
                                                               }
                                                      },
                                           'Return' => '314462',
                                           'ShortName' => 'operator>',
                                           'Source' => 'element.cc',
                                           'SourceLine' => '436'
                                         },
                            '3046205' => {
                                           'Class' => '3045166',
                                           'Const' => 1,
                                           'Header' => 'element.hpp',
                                           'InLine' => 2,
                                           'Line' => '106',
                                           'MnglName' => '_ZNK9exactreal7ElementINS_11IntegerRingEEeqERK10__gmp_exprIA1_12__mpz_structS5_E',
                                           'Param' => {
                                                        '0' => {
                                                                 'name' => 'this',
                                                                 'type' => '3073664'
                                                               },
                                                        '1' => {
                                                                 'name' => 'rhs',
                                                                 'type' => '337144'
                                                               }
                                                      },
                                           'Return' => '314462',
                                           'ShortName' => 'operator==',
                                           'Source' => 'element.cc',
                                           'SourceLine' => '471'
                                         },
                            '3046241' => {
                                           'Class' => '3045166',
                                           'Const' => 1,
                                           'Header' => 'element.hpp',
                                           'InLine' => 2,
                                           'Line' => '107',
                                           'MnglName' => '_ZNK9exactreal7ElementINS_11IntegerRingEEltERK10__gmp_exprIA1_12__mpz_structS5_E',
                                           'Param' => {
                                                        '0' => {
                                                                 'name' => 'this',
                                                                 'type' => '3073664'
                                                               },
                                                        '1' => {
                                                                 'name' => 'rhs',
                                                                 'type' => '337144'
                                                               }
                                                      },
                                           'Return' => '314462',
                                           'ShortName' => 'operator<',
                                           'Source' => 'element.cc',
                                           'SourceLine' => '441'
                                         },
                            '3046277' => {
                                           'Class' => '3045166',
                                           'Const' => 1,
                                           'Header' => 'element.hpp',
                                           'InLine' => 2,
                                           'Line' => '108',
                                           'MnglName' => '_ZNK9exactreal7ElementINS_11IntegerRingEEgtERK10__gmp_exprIA1_12__mpz_structS5_E',
                                           'Param' => {
                                                        '0' => {
                                                                 'name' => 'this',
                                                                 'type' => '3073664'
                                                               },
                                                        '1' => {
                                                                 'name' => 'rhs',
                                                                 'type' => '337144'
                                                               }
                                                      },
                                           'Return' => '314462',
                                           'ShortName' => 'operator>',
                                           'Source' => 'element.cc',
                                           'SourceLine' => '446'
                                         },
                            '3046313' => {
                                           'Class' => '3045166',
                                           'Const' => 1,
                                           'Header' => 'element.hpp',
                                           'InLine' => 2,
                                           'Line' => '110',
                                           'MnglName' => '_ZNK9exactreal7ElementINS_11IntegerRingEEeqEx',
                                           'Param' => {
                                                        '0' => {
                                                                 'name' => 'this',
                                                                 'type' => '3073664'
                                                               },
                                                        '1' => {
                                                                 'name' => 'rhs',
                                                                 'type' => '313961'
                                                               }
                                                      },
                                           'Return' => '314462',
                                           'ShortName' => 'operator==',
                                           'Source' => 'element.cc',
                                           'SourceLine' => '476'
                                         },
                            '3046349' => {
                                           'Class' => '3045166',
                                           'Const' => 1,
                                           'Header' => 'element.hpp',
                                           'InLine' => 2,
                                           'Line' => '111',
                                           'MnglName' => '_ZNK9exactreal7ElementINS_11IntegerRingEEltEx',
                                           'Param' => {
                                                        '0' => {
                                                                 'name' => 'this',
                                                                 'type' => '3073664'
                                                               },
                                                        '1' => {
                                                                 'name' => 'rhs',
                                                                 'type' => '313961'
                                                               }
                                                      },
                                           'Return' => '314462',
                                           'ShortName' => 'operator<',
                                           'Source' => 'element.cc',
                                           'SourceLine' => '451'
                                         },
                            '3046385' => {
                                           'Class' => '3045166',
                                           'Const' => 1,
                                           'Header' => 'element.hpp',
                                           'InLine' => 2,
                                           'Line' => '112',
                                           'MnglName' => '_ZNK9exactreal7ElementINS_11IntegerRingEEgtEx',
                                           'Param' => {
                                                        '0' => {
                                                                 'name' => 'this',
                                                                 'type' => '3073664'
                                                               },
                                                        '1' => {
                                                                 'name' => 'rhs',
                                                                 'type' => '313961'
                                                               }
                                                      },
                                           'Return' => '314462',
                                           'ShortName' => 'operator>',
                                           'Source' => 'element.cc',
                                           'SourceLine' => '456'
                                         },
                            '3046421' => {
                                           'Class' => '3045166',
                                           'Const' => 1,
                                           'Header' => 'element.hpp',
                                           'InLine' => 2,
                                           'Line' => '114',
                                           'MnglName' => '_ZNK9exactreal7ElementINS_11IntegerRingEEcvbEv',
                                           'Param' => {
                                                        '0' => {
                                                                 'name' => 'this',
                                                                 'type' => '3073664'
                                                               }
                                                      },
                                           'Return' => '314462',
                                           'ShortName' => 'operator bool',
                                           'Source' => 'element.cc',
                                           'SourceLine' => '553'
                                         },
                            '3046453' => {
                                           'Class' => '3045166',
                                           'Const' => 1,
                                           'Header' => 'element.hpp',
                                           'InLine' => 2,
                                           'Line' => '116',
                                           'MnglName' => '_ZNK9exactreal7ElementINS_11IntegerRingEEcvdEv',
                                           'Param' => {
                                                        '0' => {
                                                                 'name' => 'this',
                                                                 'type' => '3073664'
                                                               }
                                                      },
                                           'Return' => '313165',
                                           'ShortName' => 'operator double',
                                           'Source' => 'element.cc',
                                           'SourceLine' => '558'
                                         },
                            '3046485' => {
                                           'Class' => '3045166',
                                           'Const' => 1,
                                           'Header' => 'element.hpp',
                                           'InLine' => 2,
                                           'Line' => '118',
                                           'MnglName' => '_ZNK9exactreal7ElementINS_11IntegerRingEEcvSt8optionalI10__gmp_exprIA1_12__mpz_structS6_EEEv',
                                           'Param' => {
                                                        '0' => {
                                                                 'name' => 'this',
                                                                 'type' => '3073664'
                                                               }
                                                      },
                                           'Return' => '2713103',
                                           'ShortName' => 'operator std::optional<__gmp_expr<__mpz_struct[1], __mpz_struct[1]> >',
                                           'Source' => 'element.cc',
                                           'SourceLine' => '487',
                                           'TParam' => {
                                                         '0' => {
                                                                  'type' => 325536
                                                                }
                                                       }
                                         },
                            '3046517' => {
                                           'Class' => '3045166',
                                           'Const' => 1,
                                           'Header' => 'element.hpp',
                                           'InLine' => 2,
                                           'Line' => '119',
                                           'MnglName' => '_ZNK9exactreal7ElementINS_11IntegerRingEEcvSt8optionalI10__gmp_exprIA1_12__mpq_structS6_EEEv',
                                           'Param' => {
                                                        '0' => {
                                                                 'name' => 'this',
                                                                 'type' => '3073664'
                                                               }
                                                      },
                                           'Return' => '256640',
                                           'ShortName' => 'operator std::optional<__gmp_expr<__mpq_struct[1], __mpq_struct[1]> >',
                                           'Source' => 'element.cc',
                                           'SourceLine' => '497',
                                           'TParam' => {
                                                         '0' => {
                                                                  'type' => 333343
                                                                }
                                                       }
                                         },
                            '3046549' => {
                                           'Class' => '3045166',
                                           'Const' => 1,
                                           'Header' => 'element.hpp',
                                           'InLine' => 2,
                                           'Line' => '121',
                                           'MnglName' => '_ZNK9exactreal7ElementINS_11IntegerRingEE6moduleEv',
                                           'Param' => {
                                                        '0' => {
                                                                 'name' => 'this',
                                                                 'type' => '3073664'
                                                               }
                                                      },
                                           'Return' => '2712405',
                                           'ShortName' => 'module',
                                           'Source' => 'element.cc',
                                           'SourceLine' => '599'
                                         },
                            '3046580' => {
                                           'Class' => '3045166',
                                           'Header' => 'element.hpp',
                                           'InLine' => 2,
                                           'Line' => '125',
                                           'MnglName' => '_ZN9exactreal7ElementINS_11IntegerRingEE7promoteERKSt10shared_ptrIKNS_6ModuleIS1_EEE',
                                           'Param' => {
                                                        '0' => {
                                                                 'name' => 'this',
                                                                 'type' => '3073647'
                                                               },
                                                        '1' => {
                                                                 'name' => 'parent',
                                                                 'type' => '3073652'
                                                               }
                                                      },
                                           'Return' => '3073675',
                                           'ShortName' => 'promote',
                                           'Source' => 'element.cc',
                                           'SourceLine' => '604'
                                         },
                            '3046616' => {
                                           'Class' => '3045166',
                                           'Header' => 'element.hpp',
                                           'InLine' => 2,
                                           'Line' => '132',
                                           'MnglName' => '_ZN9exactreal7ElementINS_11IntegerRingEE8simplifyEv',
                                           'Param' => {
                                                        '0' => {
                                                                 'name' => 'this',
                                                                 'type' => '3073647'
                                                               }
                                                      },
                                           'Return' => '3073675',
                                           'ShortName' => 'simplify',
                                           'Source' => 'element.cc',
                                           'SourceLine' => '649'
                                         },
                            '3046815' => {
                                           'Class' => '3045166',
                                           'Const' => 1,
                                           'Header' => 'element.hpp',
                                           'InLine' => 2,
                                           'MnglName' => '_ZNK9exactreal7ElementINS_11IntegerRingEE12coefficientsI10__gmp_exprIA1_12__mpq_structS6_EEESt6vectorIT_SaIS9_EEv',
                                           'Param' => {
                                                        '0' => {
                                                                 'name' => 'this',
                                                                 'type' => '3073664'
                                                               }
                                                      },
                                           'Return' => '2695537',
                                           'ShortName' => 'coefficients<__gmp_expr<__mpq_struct[1], __mpq_struct[1]> >',
                                           'Source' => 'element.cc',
                                           'SourceLine' => '136',
                                           'TParam' => {
                                                         '0' => {
                                                                  'key' => 'C',
                                                                  'type' => '333343'
                                                                }
                                                       }
                                         },
                            '3046853' => {
                                           'Class' => '3045166',
                                           'Const' => 1,
                                           'Header' => 'element.hpp',
                                           'InLine' => 2,
                                           'MnglName' => '_ZNK9exactreal7ElementINS_11IntegerRingEE12coefficientsI10__gmp_exprIA1_12__mpz_structS6_EEESt6vectorIT_SaIS9_EEv',
                                           'Param' => {
                                                        '0' => {
                                                                 'name' => 'this',
                                                                 'type' => '3073664'
                                                               }
                                                      },
                                           'Return' => '2692162',
                                           'ShortName' => 'coefficients<__gmp_expr<__mpz_struct[1], __mpz_struct[1]> >',
                                           'Source' => 'element.cc',
                                           'SourceLine' => '136',
                                           'TParam' => {
                                                         '0' => {
                                                                  'key' => 'C',
                                                                  'type' => '325536'
                                                                }
                                                       }
                                         },
                            '3046892' => {
                                           'Class' => '3045166',
                                           'Header' => 'element.hpp',
                                           'InLine' => 2,
                                           'MnglName' => '_ZN9exactreal7ElementINS_11IntegerRingEEmLI10__gmp_exprIA1_12__mpz_structS6_ES4_IS6_17__gmp_binary_exprIS7_S7_23__gmp_binary_multipliesEEEERS2_RKT_',
                                           'Param' => {
                                                        '0' => {
                                                                 'name' => 'this',
                                                                 'type' => '3073647'
                                                               },
                                                        '1' => {
                                                                 'name' => 'rhs',
                                                                 'type' => '331537'
                                                               }
                                                      },
                                           'Return' => '3073675',
                                           'ShortName' => 'operator*=<__gmp_expr<__mpz_struct[1], __mpz_struct[1]> >',
                                           'Source' => 'element.cc',
                                           'SourceLine' => '259',
                                           'TParam' => {
                                                         '0' => {
                                                                  'key' => 'T',
                                                                  'type' => '325536'
                                                                }
                                                       }
                                         },
                            '3046936' => {
                                           'Class' => '3045166',
                                           'Header' => 'element.hpp',
                                           'InLine' => 2,
                                           'MnglName' => '_ZN9exactreal7ElementINS_11IntegerRingEEmLIi10__gmp_exprIA1_12__mpz_struct17__gmp_binary_exprIS4_IS6_S6_El23__gmp_binary_multipliesEEEERS2_RKT_',
                                           'Param' => {
                                                        '0' => {
                                                                 'name' => 'this',
                                                                 'type' => '3073647'
                                                               },
                                                        '1' => {
                                                                 'name' => 'rhs',
                                                                 'type' => '323017'
                                                               }
                                                      },
                                           'Return' => '3073675',
                                           'ShortName' => 'operator*=<int>',
                                           'Source' => 'element.cc',
                                           'SourceLine' => '259',
                                           'TParam' => {
                                                         '0' => {
                                                                  'key' => 'T',
                                                                  'type' => '311699'
                                                                }
                                                       }
                                         },
                            '3047046' => {
                                           'Class' => '3047013',
                                           'Header' => 'module.hpp',
                                           'InLine' => 2,
                                           'Line' => '37',
                                           'MnglName' => '_ZN9exactreal6ModuleINS_11IntegerRingEE4makeERKSt6vectorISt10shared_ptrIKNS_10RealNumberEESaIS7_EE',
                                           'Param' => {
                                                        '0' => {
                                                                 'name' => 'basis',
                                                                 'type' => '3074184'
                                                               }
                                                      },
                                           'Return' => '2712107',
                                           'ShortName' => 'make',
                                           'Source' => 'module.cc',
                                           'SourceLine' => '102',
                                           'Static' => 1
                                         },
                            '3047095' => {
                                           'Class' => '3047013',
                                           'Header' => 'module.hpp',
                                           'InLine' => 2,
                                           'Line' => '39',
                                           'MnglName' => '_ZN9exactreal6ModuleINS_11IntegerRingEE4makeERKSt6vectorISt10shared_ptrIKNS_10RealNumberEESaIS7_EERKS1_',
                                           'Param' => {
                                                        '0' => {
                                                                 'name' => 'basis_',
                                                                 'type' => '3074184'
                                                               },
                                                        '1' => {
                                                                 'name' => 'ring',
                                                                 'type' => '428512'
                                                               }
                                                      },
                                           'Return' => '2712107',
                                           'ShortName' => 'make',
                                           'Source' => 'module.cc',
                                           'SourceLine' => '107',
                                           'Static' => 1
                                         },
                            '3047129' => {
                                           'Class' => '3047013',
                                           'Const' => 1,
                                           'Header' => 'module.hpp',
                                           'InLine' => 2,
                                           'Line' => '42',
                                           'MnglName' => '_ZNK9exactreal6ModuleINS_11IntegerRingEE4ringEv',
                                           'Param' => {
                                                        '0' => {
                                                                 'name' => 'this',
                                                                 'type' => '4470928'
                                                               }
                                                      },
                                           'Return' => '428512',
                                           'ShortName' => 'ring',
                                           'Source' => 'module.cc',
                                           'SourceLine' => '126'
                                         },
                            '3047161' => {
                                           'Class' => '3047013',
                                           'Const' => 1,
                                           'Header' => 'module.hpp',
                                           'InLine' => 2,
                                           'Line' => '44',
                                           'MnglName' => '_ZNK9exactreal6ModuleINS_11IntegerRingEE4rankEv',
                                           'Param' => {
                                                        '0' => {
                                                                 'name' => 'this',
                                                                 'type' => '4470928'
                                                               }
                                                      },
                                           'Return' => '3046995',
                                           'ShortName' => 'rank',
                                           'Source' => 'module.cc',
                                           'SourceLine' => '116'
                                         },
                            '3047193' => {
                                           'Class' => '3047013',
                                           'Const' => 1,
                                           'Header' => 'module.hpp',
                                           'InLine' => 2,
                                           'Line' => '46',
                                           'MnglName' => '_ZNK9exactreal6ModuleINS_11IntegerRingEE9submoduleERKS2_',
                                           'Param' => {
                                                        '0' => {
                                                                 'name' => 'this',
                                                                 'type' => '4470928'
                                                               },
                                                        '1' => {
                                                                 'name' => 'supermodule',
                                                                 'type' => '3074190'
                                                               }
                                                      },
                                           'Return' => '314462',
                                           'ShortName' => 'submodule',
                                           'Source' => 'module.cc',
                                           'SourceLine' => '170'
                                         },
                            '3047230' => {
                                           'Class' => '3047013',
                                           'Const' => 1,
                                           'Header' => 'module.hpp',
                                           'InLine' => 2,
                                           'Line' => '48',
                                           'MnglName' => '_ZNK9exactreal6ModuleINS_11IntegerRingEE5basisEv',
                                           'Param' => {
                                                        '0' => {
                                                                 'name' => 'this',
                                                                 'type' => '4470928'
                                                               }
                                                      },
                                           'Return' => '3075611',
                                           'ShortName' => 'basis',
                                           'Source' => 'module.cc',
                                           'SourceLine' => '121'
                                         },
                            '3047262' => {
                                           'Class' => '3047013',
                                           'Const' => 1,
                                           'Header' => 'module.hpp',
                                           'InLine' => 2,
                                           'Line' => '49',
                                           'MnglName' => '_ZNK9exactreal6ModuleINS_11IntegerRingEE3genEl',
                                           'Param' => {
                                                        '0' => {
                                                                 'name' => 'this',
                                                                 'type' => '4470928'
                                                               },
                                                        '1' => {
                                                                 'name' => 'j',
                                                                 'type' => '3046995'
                                                               }
                                                      },
                                           'Return' => '3045166',
                                           'ShortName' => 'gen',
                                           'Source' => 'module.cc',
                                           'SourceLine' => '181'
                                         },
                            '3047300' => {
                                           'Class' => '3047013',
                                           'Const' => 1,
                                           'Header' => 'module.hpp',
                                           'InLine' => 2,
                                           'Line' => '50',
                                           'MnglName' => '_ZNK9exactreal6ModuleINS_11IntegerRingEE4zeroEv',
                                           'Param' => {
                                                        '0' => {
                                                                 'name' => 'this',
                                                                 'type' => '4470928'
                                                               }
                                                      },
                                           'Return' => '3045166',
                                           'ShortName' => 'zero',
                                           'Source' => 'module.cc',
                                           'SourceLine' => '188'
                                         },
                            '3047332' => {
                                           'Class' => '3047013',
                                           'Const' => 1,
                                           'Header' => 'module.hpp',
                                           'InLine' => 2,
                                           'Line' => '53',
                                           'MnglName' => '_ZNK9exactreal6ModuleINS_11IntegerRingEEeqERKS2_',
                                           'Param' => {
                                                        '0' => {
                                                                 'name' => 'this',
                                                                 'type' => '4470928'
                                                               },
                                                        '1' => {
                                                                 'name' => 'rhs',
                                                                 'type' => '3074190'
                                                               }
                                                      },
                                           'Return' => '314462',
                                           'ShortName' => 'operator==',
                                           'Source' => 'module.cc',
                                           'SourceLine' => '131'
                                         },
                            '3047369' => {
                                           'Class' => '3047013',
                                           'Header' => 'module.hpp',
                                           'InLine' => 2,
                                           'Line' => '58',
                                           'MnglName' => '_ZN9exactreal6ModuleINS_11IntegerRingEE4spanERKSt10shared_ptrIKS2_ES7_',
                                           'Param' => {
                                                        '0' => {
                                                                 'name' => 'm',
                                                                 'type' => '3073652'
                                                               },
                                                        '1' => {
                                                                 'name' => 'n',
                                                                 'type' => '3073652'
                                                               }
                                                      },
                                           'Return' => '2712107',
                                           'ShortName' => 'span',
                                           'Source' => 'module.cc',
                                           'SourceLine' => '137',
                                           'Static' => 1
                                         },
                            '3047767' => {
                                           'Class' => '3047465',
                                           'Const' => 1,
                                           'Header' => 'element.hpp',
                                           'InLine' => 2,
                                           'Line' => '60',
                                           'MnglName' => '_ZNK9exactreal7ElementINS_13RationalFieldEEixEl',
                                           'Param' => {
                                                        '0' => {
                                                                 'name' => 'this',
                                                                 'type' => '3074635'
                                                               },
                                                        '1' => {
                                                                 'name' => 'i',
                                                                 'type' => '3047008'
                                                               }
                                                      },
                                           'Return' => '383856',
                                           'ShortName' => 'operator[]',
                                           'Source' => 'element.cc',
                                           'SourceLine' => '130'
                                         },
                            '3047839' => {
                                           'Class' => '3047465',
                                           'Const' => 1,
                                           'Header' => 'element.hpp',
                                           'InLine' => 2,
                                           'Line' => '70',
                                           'MnglName' => '_ZNK9exactreal7ElementINS_13RationalFieldEE3arbEl',
                                           'Param' => {
                                                        '0' => {
                                                                 'name' => 'this',
                                                                 'type' => '3074635'
                                                               },
                                                        '1' => {
                                                                 'name' => 'accuracy',
                                                                 'type' => '313286'
                                                               }
                                                      },
                                           'Return' => '382005',
                                           'ShortName' => 'arb',
                                           'Source' => 'element.cc',
                                           'SourceLine' => '163'
                                         },
                            '3047876' => {
                                           'Class' => '3047465',
                                           'Header' => 'element.hpp',
                                           'InLine' => 2,
                                           'Line' => '72',
                                           'MnglName' => '_ZN9exactreal7ElementINS_13RationalFieldEEpLERKS2_',
                                           'Param' => {
                                                        '0' => {
                                                                 'name' => 'this',
                                                                 'type' => '3074618'
                                                               },
                                                        '1' => {
                                                                 'name' => 'rhs',
                                                                 'type' => '3074646'
                                                               }
                                                      },
                                           'Return' => '3074640',
                                           'ShortName' => 'operator+=',
                                           'Source' => 'element.cc',
                                           'SourceLine' => '183'
                                         },
                            '3047912' => {
                                           'Class' => '3047465',
                                           'Header' => 'element.hpp',
                                           'InLine' => 2,
                                           'Line' => '73',
                                           'MnglName' => '_ZN9exactreal7ElementINS_13RationalFieldEEmIERKS2_',
                                           'Param' => {
                                                        '0' => {
                                                                 'name' => 'this',
                                                                 'type' => '3074618'
                                                               },
                                                        '1' => {
                                                                 'name' => 'rhs',
                                                                 'type' => '3074646'
                                                               }
                                                      },
                                           'Return' => '3074640',
                                           'ShortName' => 'operator-=',
                                           'Source' => 'element.cc',
                                           'SourceLine' => '196'
                                         },
                            '3047948' => {
                                           'Class' => '3047465',
                                           'Header' => 'element.hpp',
                                           'InLine' => 2,
                                           'Line' => '74',
                                           'MnglName' => '_ZN9exactreal7ElementINS_13RationalFieldEEmLERKS2_',
                                           'Param' => {
                                                        '0' => {
                                                                 'name' => 'this',
                                                                 'type' => '3074618'
                                                               },
                                                        '1' => {
                                                                 'name' => 'rhs',
                                                                 'type' => '3074646'
                                                               }
                                                      },
                                           'Return' => '3074640',
                                           'ShortName' => 'operator*=',
                                           'Source' => 'element.cc',
                                           'SourceLine' => '201'
                                         },
                            '3047984' => {
                                           'Class' => '3047465',
                                           'Header' => 'element.hpp',
                                           'InLine' => 2,
                                           'Line' => '75',
                                           'MnglName' => '_ZN9exactreal7ElementINS_13RationalFieldEEmLERKNS_10RealNumberE',
                                           'Param' => {
                                                        '0' => {
                                                                 'name' => 'this',
                                                                 'type' => '3074618'
                                                               },
                                                        '1' => {
                                                                 'name' => 'rhs',
                                                                 'type' => '436411'
                                                               }
                                                      },
                                           'Return' => '3074640',
                                           'ShortName' => 'operator*=',
                                           'Source' => 'element.cc',
                                           'SourceLine' => '243'
                                         },
                            '3048020' => {
                                           'Class' => '3047465',
                                           'Const' => 1,
                                           'Header' => 'element.hpp',
                                           'InLine' => 2,
                                           'Line' => '76',
                                           'MnglName' => '_ZNK9exactreal7ElementINS_13RationalFieldEEngEv',
                                           'Param' => {
                                                        '0' => {
                                                                 'name' => 'this',
                                                                 'type' => '3074635'
                                                               }
                                                      },
                                           'Return' => '3047465',
                                           'ShortName' => 'operator-',
                                           'Source' => 'element.cc',
                                           'SourceLine' => '248'
                                         },
                            '3048051' => {
                                           'Class' => '3047465',
                                           'Const' => 1,
                                           'Header' => 'element.hpp',
                                           'InLine' => 2,
                                           'Line' => '86',
                                           'MnglName' => '_ZNK9exactreal7ElementINS_13RationalFieldEE7truedivERKS2_',
                                           'Param' => {
                                                        '0' => {
                                                                 'name' => 'this',
                                                                 'type' => '3074635'
                                                               },
                                                        '1' => {
                                                                 'name' => 'rhs',
                                                                 'type' => '3074646'
                                                               }
                                                      },
                                           'Return' => '2724873',
                                           'ShortName' => 'truediv',
                                           'Source' => 'element.cc',
                                           'SourceLine' => '276'
                                         },
                            '3048087' => {
                                           'Class' => '3047465',
                                           'Const' => 1,
                                           'Header' => 'element.hpp',
                                           'InLine' => 2,
                                           'Line' => '87',
                                           'MnglName' => '_ZNK9exactreal7ElementINS_13RationalFieldEE8floordivERKS2_',
                                           'Param' => {
                                                        '0' => {
                                                                 'name' => 'this',
                                                                 'type' => '3074635'
                                                               },
                                                        '1' => {
                                                                 'name' => 'rhs',
                                                                 'type' => '3074646'
                                                               }
                                                      },
                                           'Return' => '333325',
                                           'ShortName' => 'floordiv',
                                           'Source' => 'element.cc',
                                           'SourceLine' => '325'
                                         },
                            '3048123' => {
                                           'Class' => '3047465',
                                           'Const' => 1,
                                           'Header' => 'element.hpp',
                                           'InLine' => 2,
                                           'Line' => '90',
                                           'MnglName' => '_ZNK9exactreal7ElementINS_13RationalFieldEE4unitEv',
                                           'Param' => {
                                                        '0' => {
                                                                 'name' => 'this',
                                                                 'type' => '3074635'
                                                               }
                                                      },
                                           'Return' => '314462',
                                           'ShortName' => 'unit',
                                           'Source' => 'element.cc',
                                           'SourceLine' => '380'
                                         },
                            '3048154' => {
                                           'Class' => '3047465',
                                           'Const' => 1,
                                           'Header' => 'element.hpp',
                                           'InLine' => 2,
                                           'Line' => '92',
                                           'MnglName' => '_ZNK9exactreal7ElementINS_13RationalFieldEE5floorEv',
                                           'Param' => {
                                                        '0' => {
                                                                 'name' => 'this',
                                                                 'type' => '3074635'
                                                               }
                                                      },
                                           'Return' => '333325',
                                           'ShortName' => 'floor',
                                           'Source' => 'element.cc',
                                           'SourceLine' => '398'
                                         },
                            '3048185' => {
                                           'Class' => '3047465',
                                           'Const' => 1,
                                           'Header' => 'element.hpp',
                                           'InLine' => 2,
                                           'Line' => '93',
                                           'MnglName' => '_ZNK9exactreal7ElementINS_13RationalFieldEE4ceilEv',
                                           'Param' => {
                                                        '0' => {
                                                                 'name' => 'this',
                                                                 'type' => '3074635'
                                                               }
                                                      },
                                           'Return' => '333325',
                                           'ShortName' => 'ceil',
                                           'Source' => 'element.cc',
                                           'SourceLine' => '412'
                                         },
                            '3048216' => {
                                           'Class' => '3047465',
                                           'Const' => 1,
                                           'Header' => 'element.hpp',
                                           'InLine' => 2,
                                           'Line' => '95',
                                           'MnglName' => '_ZNK9exactreal7ElementINS_13RationalFieldEEeqERKS2_',
                                           'Param' => {
                                                        '0' => {
                                                                 'name' => 'this',
                                                                 'type' => '3074635'
                                                               },
                                                        '1' => {
                                                                 'name' => 'rhs',
                                                                 'type' => '3074646'
                                                               }
                                                      },
                                           'Return' => '314462',
                                           'ShortName' => 'operator==',
                                           'Source' => 'element.cc',
                                           'SourceLine' => '519'
                                         },
                            '3048252' => {
                                           'Class' => '3047465',
                                           'Const' => 1,
                                           'Header' => 'element.hpp',
                                           'InLine' => 2,
                                           'Line' => '96',
                                           'MnglName' => '_ZNK9exactreal7ElementINS_13RationalFieldEEltERKS2_',
                                           'Param' => {
                                                        '0' => {
                                                                 'name' => 'this',
                                                                 'type' => '3074635'
                                                               },
                                                        '1' => {
                                                                 'name' => 'rhs',
                                                                 'type' => '3074646'
                                                               }
                                                      },
                                           'Return' => '314462',
                                           'ShortName' => 'operator<',
                                           'Source' => 'element.cc',
                                           'SourceLine' => '426'
                                         },
                            '3048288' => {
                                           'Class' => '3047465',
                                           'Const' => 1,
                                           'Header' => 'element.hpp',
                                           'InLine' => 2,
                                           'Line' => '98',
                                           'MnglName' => '_ZNK9exactreal7ElementINS_13RationalFieldEEeqERKNS_10RealNumberE',
                                           'Param' => {
                                                        '0' => {
                                                                 'name' => 'this',
                                                                 'type' => '3074635'
                                                               },
                                                        '1' => {
                                                                 'name' => 'rhs',
                                                                 'type' => '436411'
                                                               }
                                                      },
                                           'Return' => '314462',
                                           'ShortName' => 'operator==',
                                           'Source' => 'element.cc',
                                           'SourceLine' => '529'
                                         },
                            '3048324' => {
                                           'Class' => '3047465',
                                           'Const' => 1,
                                           'Header' => 'element.hpp',
                                           'InLine' => 2,
                                           'Line' => '99',
                                           'MnglName' => '_ZNK9exactreal7ElementINS_13RationalFieldEEltERKNS_10RealNumberE',
                                           'Param' => {
                                                        '0' => {
                                                                 'name' => 'this',
                                                                 'type' => '3074635'
                                                               },
                                                        '1' => {
                                                                 'name' => 'rhs',
                                                                 'type' => '436411'
                                                               }
                                                      },
                                           'Return' => '314462',
                                           'ShortName' => 'operator<',
                                           'Source' => 'element.cc',
                                           'SourceLine' => '461'
                                         },
                            '3048360' => {
                                           'Class' => '3047465',
                                           'Const' => 1,
                                           'Header' => 'element.hpp',
                                           'InLine' => 2,
                                           'Line' => '100',
                                           'MnglName' => '_ZNK9exactreal7ElementINS_13RationalFieldEEgtERKNS_10RealNumberE',
                                           'Param' => {
                                                        '0' => {
                                                                 'name' => 'this',
                                                                 'type' => '3074635'
                                                               },
                                                        '1' => {
                                                                 'name' => 'rhs',
                                                                 'type' => '436411'
                                                               }
                                                      },
                                           'Return' => '314462',
                                           'ShortName' => 'operator>',
                                           'Source' => 'element.cc',
                                           'SourceLine' => '466'
                                         },
                            '3048396' => {
                                           'Class' => '3047465',
                                           'Const' => 1,
                                           'Header' => 'element.hpp',
                                           'InLine' => 2,
                                           'Line' => '102',
                                           'MnglName' => '_ZNK9exactreal7ElementINS_13RationalFieldEEeqERK10__gmp_exprIA1_12__mpq_structS5_E',
                                           'Param' => {
                                                        '0' => {
                                                                 'name' => 'this',
                                                                 'type' => '3074635'
                                                               },
                                                        '1' => {
                                                                 'name' => 'rhs',
                                                                 'type' => '385562'
                                                               }
                                                      },
                                           'Return' => '314462',
                                           'ShortName' => 'operator==',
                                           'Source' => 'element.cc',
                                           'SourceLine' => '481'
                                         },
                            '3048432' => {
                                           'Class' => '3047465',
                                           'Const' => 1,
                                           'Header' => 'element.hpp',
                                           'InLine' => 2,
                                           'Line' => '103',
                                           'MnglName' => '_ZNK9exactreal7ElementINS_13RationalFieldEEltERK10__gmp_exprIA1_12__mpq_structS5_E',
                                           'Param' => {
                                                        '0' => {
                                                                 'name' => 'this',
                                                                 'type' => '3074635'
                                                               },
                                                        '1' => {
                                                                 'name' => 'rhs',
                                                                 'type' => '385562'
                                                               }
                                                      },
                                           'Return' => '314462',
                                           'ShortName' => 'operator<',
                                           'Source' => 'element.cc',
                                           'SourceLine' => '431'
                                         },
                            '3048468' => {
                                           'Class' => '3047465',
                                           'Const' => 1,
                                           'Header' => 'element.hpp',
                                           'InLine' => 2,
                                           'Line' => '104',
                                           'MnglName' => '_ZNK9exactreal7ElementINS_13RationalFieldEEgtERK10__gmp_exprIA1_12__mpq_structS5_E',
                                           'Param' => {
                                                        '0' => {
                                                                 'name' => 'this',
                                                                 'type' => '3074635'
                                                               },
                                                        '1' => {
                                                                 'name' => 'rhs',
                                                                 'type' => '385562'
                                                               }
                                                      },
                                           'Return' => '314462',
                                           'ShortName' => 'operator>',
                                           'Source' => 'element.cc',
                                           'SourceLine' => '436'
                                         },
                            '3048504' => {
                                           'Class' => '3047465',
                                           'Const' => 1,
                                           'Header' => 'element.hpp',
                                           'InLine' => 2,
                                           'Line' => '106',
                                           'MnglName' => '_ZNK9exactreal7ElementINS_13RationalFieldEEeqERK10__gmp_exprIA1_12__mpz_structS5_E',
                                           'Param' => {
                                                        '0' => {
                                                                 'name' => 'this',
                                                                 'type' => '3074635'
                                                               },
                                                        '1' => {
                                                                 'name' => 'rhs',
                                                                 'type' => '337144'
                                                               }
                                                      },
                                           'Return' => '314462',
                                           'ShortName' => 'operator==',
                                           'Source' => 'element.cc',
                                           'SourceLine' => '471'
                                         },
                            '3048540' => {
                                           'Class' => '3047465',
                                           'Const' => 1,
                                           'Header' => 'element.hpp',
                                           'InLine' => 2,
                                           'Line' => '107',
                                           'MnglName' => '_ZNK9exactreal7ElementINS_13RationalFieldEEltERK10__gmp_exprIA1_12__mpz_structS5_E',
                                           'Param' => {
                                                        '0' => {
                                                                 'name' => 'this',
                                                                 'type' => '3074635'
                                                               },
                                                        '1' => {
                                                                 'name' => 'rhs',
                                                                 'type' => '337144'
                                                               }
                                                      },
                                           'Return' => '314462',
                                           'ShortName' => 'operator<',
                                           'Source' => 'element.cc',
                                           'SourceLine' => '441'
                                         },
                            '3048576' => {
                                           'Class' => '3047465',
                                           'Const' => 1,
                                           'Header' => 'element.hpp',
                                           'InLine' => 2,
                                           'Line' => '108',
                                           'MnglName' => '_ZNK9exactreal7ElementINS_13RationalFieldEEgtERK10__gmp_exprIA1_12__mpz_structS5_E',
                                           'Param' => {
                                                        '0' => {
                                                                 'name' => 'this',
                                                                 'type' => '3074635'
                                                               },
                                                        '1' => {
                                                                 'name' => 'rhs',
                                                                 'type' => '337144'
                                                               }
                                                      },
                                           'Return' => '314462',
                                           'ShortName' => 'operator>',
                                           'Source' => 'element.cc',
                                           'SourceLine' => '446'
                                         },
                            '3048612' => {
                                           'Class' => '3047465',
                                           'Const' => 1,
                                           'Header' => 'element.hpp',
                                           'InLine' => 2,
                                           'Line' => '110',
                                           'MnglName' => '_ZNK9exactreal7ElementINS_13RationalFieldEEeqEx',
                                           'Param' => {
                                                        '0' => {
                                                                 'name' => 'this',
                                                                 'type' => '3074635'
                                                               },
                                                        '1' => {
                                                                 'name' => 'rhs',
                                                                 'type' => '313961'
                                                               }
                                                      },
                                           'Return' => '314462',
                                           'ShortName' => 'operator==',
                                           'Source' => 'element.cc',
                                           'SourceLine' => '476'
                                         },
                            '3048648' => {
                                           'Class' => '3047465',
                                           'Const' => 1,
                                           'Header' => 'element.hpp',
                                           'InLine' => 2,
                                           'Line' => '111',
                                           'MnglName' => '_ZNK9exactreal7ElementINS_13RationalFieldEEltEx',
                                           'Param' => {
                                                        '0' => {
                                                                 'name' => 'this',
                                                                 'type' => '3074635'
                                                               },
                                                        '1' => {
                                                                 'name' => 'rhs',
                                                                 'type' => '313961'
                                                               }
                                                      },
                                           'Return' => '314462',
                                           'ShortName' => 'operator<',
                                           'Source' => 'element.cc',
                                           'SourceLine' => '451'
                                         },
                            '3048684' => {
                                           'Class' => '3047465',
                                           'Const' => 1,
                                           'Header' => 'element.hpp',
                                           'InLine' => 2,
                                           'Line' => '112',
                                           'MnglName' => '_ZNK9exactreal7ElementINS_13RationalFieldEEgtEx',
                                           'Param' => {
                                                        '0' => {
                                                                 'name' => 'this',
                                                                 'type' => '3074635'
                                                               },
                                                        '1' => {
                                                                 'name' => 'rhs',
                                                                 'type' => '313961'
                                                               }
                                                      },
                                           'Return' => '314462',
                                           'ShortName' => 'operator>',
                                           'Source' => 'element.cc',
                                           'SourceLine' => '456'
                                         },
                            '3048720' => {
                                           'Class' => '3047465',
                                           'Const' => 1,
                                           'Header' => 'element.hpp',
                                           'InLine' => 2,
                                           'Line' => '114',
                                           'MnglName' => '_ZNK9exactreal7ElementINS_13RationalFieldEEcvbEv',
                                           'Param' => {
                                                        '0' => {
                                                                 'name' => 'this',
                                                                 'type' => '3074635'
                                                               }
                                                      },
                                           'Return' => '314462',
                                           'ShortName' => 'operator bool',
                                           'Source' => 'element.cc',
                                           'SourceLine' => '553'
                                         },
                            '3048752' => {
                                           'Class' => '3047465',
                                           'Const' => 1,
                                           'Header' => 'element.hpp',
                                           'InLine' => 2,
                                           'Line' => '116',
                                           'MnglName' => '_ZNK9exactreal7ElementINS_13RationalFieldEEcvdEv',
                                           'Param' => {
                                                        '0' => {
                                                                 'name' => 'this',
                                                                 'type' => '3074635'
                                                               }
                                                      },
                                           'Return' => '313165',
                                           'ShortName' => 'operator double',
                                           'Source' => 'element.cc',
                                           'SourceLine' => '558'
                                         },
                            '3048784' => {
                                           'Class' => '3047465',
                                           'Const' => 1,
                                           'Header' => 'element.hpp',
                                           'InLine' => 2,
                                           'Line' => '118',
                                           'MnglName' => '_ZNK9exactreal7ElementINS_13RationalFieldEEcvSt8optionalI10__gmp_exprIA1_12__mpz_structS6_EEEv',
                                           'Param' => {
                                                        '0' => {
                                                                 'name' => 'this',
                                                                 'type' => '3074635'
                                                               }
                                                      },
                                           'Return' => '2713103',
                                           'ShortName' => 'operator std::optional<__gmp_expr<__mpz_struct[1], __mpz_struct[1]> >',
                                           'Source' => 'element.cc',
                                           'SourceLine' => '487',
                                           'TParam' => {
                                                         '0' => {
                                                                  'type' => 325536
                                                                }
                                                       }
                                         },
                            '3048816' => {
                                           'Class' => '3047465',
                                           'Const' => 1,
                                           'Header' => 'element.hpp',
                                           'InLine' => 2,
                                           'Line' => '119',
                                           'MnglName' => '_ZNK9exactreal7ElementINS_13RationalFieldEEcvSt8optionalI10__gmp_exprIA1_12__mpq_structS6_EEEv',
                                           'Param' => {
                                                        '0' => {
                                                                 'name' => 'this',
                                                                 'type' => '3074635'
                                                               }
                                                      },
                                           'Return' => '256640',
                                           'ShortName' => 'operator std::optional<__gmp_expr<__mpq_struct[1], __mpq_struct[1]> >',
                                           'Source' => 'element.cc',
                                           'SourceLine' => '497',
                                           'TParam' => {
                                                         '0' => {
                                                                  'type' => 333343
                                                                }
                                                       }
                                         },
                            '3048848' => {
                                           'Class' => '3047465',
                                           'Const' => 1,
                                           'Header' => 'element.hpp',
                                           'InLine' => 2,
                                           'Line' => '121',
                                           'MnglName' => '_ZNK9exactreal7ElementINS_13RationalFieldEE6moduleEv',
                                           'Param' => {
                                                        '0' => {
                                                                 'name' => 'this',
                                                                 'type' => '3074635'
                                                               }
                                                      },
                                           'Return' => '2724863',
                                           'ShortName' => 'module',
                                           'Source' => 'element.cc',
                                           'SourceLine' => '599'
                                         },
                            '3048879' => {
                                           'Class' => '3047465',
                                           'Header' => 'element.hpp',
                                           'InLine' => 2,
                                           'Line' => '125',
                                           'MnglName' => '_ZN9exactreal7ElementINS_13RationalFieldEE7promoteERKSt10shared_ptrIKNS_6ModuleIS1_EEE',
                                           'Param' => {
                                                        '0' => {
                                                                 'name' => 'this',
                                                                 'type' => '3074618'
                                                               },
                                                        '1' => {
                                                                 'name' => 'parent',
                                                                 'type' => '3074623'
                                                               }
                                                      },
                                           'Return' => '3074640',
                                           'ShortName' => 'promote',
                                           'Source' => 'element.cc',
                                           'SourceLine' => '604'
                                         },
                            '3048915' => {
                                           'Class' => '3047465',
                                           'Header' => 'element.hpp',
                                           'InLine' => 2,
                                           'Line' => '132',
                                           'MnglName' => '_ZN9exactreal7ElementINS_13RationalFieldEE8simplifyEv',
                                           'Param' => {
                                                        '0' => {
                                                                 'name' => 'this',
                                                                 'type' => '3074618'
                                                               }
                                                      },
                                           'Return' => '3074640',
                                           'ShortName' => 'simplify',
                                           'Source' => 'element.cc',
                                           'SourceLine' => '649'
                                         },
                            '3049157' => {
                                           'Class' => '3047465',
                                           'Const' => 1,
                                           'Header' => 'element.hpp',
                                           'InLine' => 2,
                                           'MnglName' => '_ZNK9exactreal7ElementINS_13RationalFieldEE12coefficientsI10__gmp_exprIA1_12__mpq_structS6_EEESt6vectorIT_SaIS9_EEv',
                                           'Param' => {
                                                        '0' => {
                                                                 'name' => 'this',
                                                                 'type' => '3074635'
                                                               }
                                                      },
                                           'Return' => '2695537',
                                           'ShortName' => 'coefficients<__gmp_expr<__mpq_struct[1], __mpq_struct[1]> >',
                                           'Source' => 'element.cc',
                                           'SourceLine' => '136',
                                           'TParam' => {
                                                         '0' => {
                                                                  'key' => 'C',
                                                                  'type' => '333343'
                                                                }
                                                       }
                                         },
                            '3049196' => {
                                           'Class' => '3047465',
                                           'Header' => 'element.hpp',
                                           'InLine' => 2,
                                           'MnglName' => '_ZN9exactreal7ElementINS_13RationalFieldEEdVI10__gmp_exprIA1_12__mpq_structS6_ES4_IS6_17__gmp_binary_exprIS7_S7_20__gmp_binary_dividesEEvEERS2_RKT_',
                                           'Param' => {
                                                        '0' => {
                                                                 'name' => 'this',
                                                                 'type' => '3074618'
                                                               },
                                                        '1' => {
                                                                 'name' => 'rhs',
                                                                 'type' => '337132'
                                                               }
                                                      },
                                           'Return' => '3074640',
                                           'ShortName' => 'operator/=<__gmp_expr<__mpq_struct[1], __mpq_struct[1]> >',
                                           'Source' => 'element.cc',
                                           'SourceLine' => '268',
                                           'TParam' => {
                                                         '0' => {
                                                                  'key' => 'T',
                                                                  'type' => '333343'
                                                                }
                                                       }
                                         },
                            '3049240' => {
                                           'Class' => '3047465',
                                           'Header' => 'element.hpp',
                                           'InLine' => 2,
                                           'MnglName' => '_ZN9exactreal7ElementINS_13RationalFieldEEdVI10__gmp_exprIA1_12__mpz_structS6_ES4_IA1_12__mpq_struct17__gmp_binary_exprIS4_IS9_S9_ES7_20__gmp_binary_dividesEEvEERS2_RKT_',
                                           'Param' => {
                                                        '0' => {
                                                                 'name' => 'this',
                                                                 'type' => '3074618'
                                                               },
                                                        '1' => {
                                                                 'name' => 'rhs',
                                                                 'type' => '331537'
                                                               }
                                                      },
                                           'Return' => '3074640',
                                           'ShortName' => 'operator/=<__gmp_expr<__mpz_struct[1], __mpz_struct[1]> >',
                                           'Source' => 'element.cc',
                                           'SourceLine' => '268',
                                           'TParam' => {
                                                         '0' => {
                                                                  'key' => 'T',
                                                                  'type' => '325536'
                                                                }
                                                       }
                                         },
                            '3049284' => {
                                           'Class' => '3047465',
                                           'Header' => 'element.hpp',
                                           'InLine' => 2,
                                           'MnglName' => '_ZN9exactreal7ElementINS_13RationalFieldEEdVIi10__gmp_exprIA1_12__mpq_struct17__gmp_binary_exprIS4_IS6_S6_El20__gmp_binary_dividesEEvEERS2_RKT_',
                                           'Param' => {
                                                        '0' => {
                                                                 'name' => 'this',
                                                                 'type' => '3074618'
                                                               },
                                                        '1' => {
                                                                 'name' => 'rhs',
                                                                 'type' => '323017'
                                                               }
                                                      },
                                           'Return' => '3074640',
                                           'ShortName' => 'operator/=<int>',
                                           'Source' => 'element.cc',
                                           'SourceLine' => '268',
                                           'TParam' => {
                                                         '0' => {
                                                                  'key' => 'T',
                                                                  'type' => '311699'
                                                                }
                                                       }
                                         },
                            '3049328' => {
                                           'Class' => '3047465',
                                           'Header' => 'element.hpp',
                                           'InLine' => 2,
                                           'MnglName' => '_ZN9exactreal7ElementINS_13RationalFieldEEmLI10__gmp_exprIA1_12__mpq_structS6_ES4_IS6_17__gmp_binary_exprIS7_S7_23__gmp_binary_multipliesEEEERS2_RKT_',
                                           'Param' => {
                                                        '0' => {
                                                                 'name' => 'this',
                                                                 'type' => '3074618'
                                                               },
                                                        '1' => {
                                                                 'name' => 'rhs',
                                                                 'type' => '337132'
                                                               }
                                                      },
                                           'Return' => '3074640',
                                           'ShortName' => 'operator*=<__gmp_expr<__mpq_struct[1], __mpq_struct[1]> >',
                                           'Source' => 'element.cc',
                                           'SourceLine' => '259',
                                           'TParam' => {
                                                         '0' => {
                                                                  'key' => 'T',
                                                                  'type' => '333343'
                                                                }
                                                       }
                                         },
                            '3049372' => {
                                           'Class' => '3047465',
                                           'Header' => 'element.hpp',
                                           'InLine' => 2,
                                           'MnglName' => '_ZN9exactreal7ElementINS_13RationalFieldEEmLI10__gmp_exprIA1_12__mpz_structS6_ES4_IA1_12__mpq_struct17__gmp_binary_exprIS4_IS9_S9_ES7_23__gmp_binary_multipliesEEEERS2_RKT_',
                                           'Param' => {
                                                        '0' => {
                                                                 'name' => 'this',
                                                                 'type' => '3074618'
                                                               },
                                                        '1' => {
                                                                 'name' => 'rhs',
                                                                 'type' => '331537'
                                                               }
                                                      },
                                           'Return' => '3074640',
                                           'ShortName' => 'operator*=<__gmp_expr<__mpz_struct[1], __mpz_struct[1]> >',
                                           'Source' => 'element.cc',
                                           'SourceLine' => '259',
                                           'TParam' => {
                                                         '0' => {
                                                                  'key' => 'T',
                                                                  'type' => '325536'
                                                                }
                                                       }
                                         },
                            '3049416' => {
                                           'Class' => '3047465',
                                           'Header' => 'element.hpp',
                                           'InLine' => 2,
                                           'MnglName' => '_ZN9exactreal7ElementINS_13RationalFieldEEmLIi10__gmp_exprIA1_12__mpq_struct17__gmp_binary_exprIS4_IS6_S6_El23__gmp_binary_multipliesEEEERS2_RKT_',
                                           'Param' => {
                                                        '0' => {
                                                                 'name' => 'this',
                                                                 'type' => '3074618'
                                                               },
                                                        '1' => {
                                                                 'name' => 'rhs',
                                                                 'type' => '323017'
                                                               }
                                                      },
                                           'Return' => '3074640',
                                           'ShortName' => 'operator*=<int>',
                                           'Source' => 'element.cc',
                                           'SourceLine' => '259',
                                           'TParam' => {
                                                         '0' => {
                                                                  'key' => 'T',
                                                                  'type' => '311699'
                                                                }
                                                       }
                                         },
                            '3049508' => {
                                           'Class' => '3049475',
                                           'Header' => 'module.hpp',
                                           'InLine' => 2,
                                           'Line' => '37',
                                           'MnglName' => '_ZN9exactreal6ModuleINS_13RationalFieldEE4makeERKSt6vectorISt10shared_ptrIKNS_10RealNumberEESaIS7_EE',
                                           'Param' => {
                                                        '0' => {
                                                                 'name' => 'basis',
                                                                 'type' => '3075120'
                                                               }
                                                      },
                                           'Return' => '2724565',
                                           'ShortName' => 'make',
                                           'Source' => 'module.cc',
                                           'SourceLine' => '102',
                                           'Static' => 1
                                         },
                            '3049557' => {
                                           'Class' => '3049475',
                                           'Header' => 'module.hpp',
                                           'InLine' => 2,
                                           'Line' => '39',
                                           'MnglName' => '_ZN9exactreal6ModuleINS_13RationalFieldEE4makeERKSt6vectorISt10shared_ptrIKNS_10RealNumberEESaIS7_EERKS1_',
                                           'Param' => {
                                                        '0' => {
                                                                 'name' => 'basis_',
                                                                 'type' => '3075120'
                                                               },
                                                        '1' => {
                                                                 'name' => 'ring',
                                                                 'type' => '428545'
                                                               }
                                                      },
                                           'Return' => '2724565',
                                           'ShortName' => 'make',
                                           'Source' => 'module.cc',
                                           'SourceLine' => '107',
                                           'Static' => 1
                                         },
                            '3049591' => {
                                           'Class' => '3049475',
                                           'Const' => 1,
                                           'Header' => 'module.hpp',
                                           'InLine' => 2,
                                           'Line' => '42',
                                           'MnglName' => '_ZNK9exactreal6ModuleINS_13RationalFieldEE4ringEv',
                                           'Param' => {
                                                        '0' => {
                                                                 'name' => 'this',
                                                                 'type' => '4474232'
                                                               }
                                                      },
                                           'Return' => '428545',
                                           'ShortName' => 'ring',
                                           'Source' => 'module.cc',
                                           'SourceLine' => '126'
                                         },
                            '3049623' => {
                                           'Class' => '3049475',
                                           'Const' => 1,
                                           'Header' => 'module.hpp',
                                           'InLine' => 2,
                                           'Line' => '44',
                                           'MnglName' => '_ZNK9exactreal6ModuleINS_13RationalFieldEE4rankEv',
                                           'Param' => {
                                                        '0' => {
                                                                 'name' => 'this',
                                                                 'type' => '4474232'
                                                               }
                                                      },
                                           'Return' => '3046995',
                                           'ShortName' => 'rank',
                                           'Source' => 'module.cc',
                                           'SourceLine' => '116'
                                         },
                            '3049655' => {
                                           'Class' => '3049475',
                                           'Const' => 1,
                                           'Header' => 'module.hpp',
                                           'InLine' => 2,
                                           'Line' => '46',
                                           'MnglName' => '_ZNK9exactreal6ModuleINS_13RationalFieldEE9submoduleERKS2_',
                                           'Param' => {
                                                        '0' => {
                                                                 'name' => 'this',
                                                                 'type' => '4474232'
                                                               },
                                                        '1' => {
                                                                 'name' => 'supermodule',
                                                                 'type' => '3075126'
                                                               }
                                                      },
                                           'Return' => '314462',
                                           'ShortName' => 'submodule',
                                           'Source' => 'module.cc',
                                           'SourceLine' => '170'
                                         },
                            '3049692' => {
                                           'Class' => '3049475',
                                           'Const' => 1,
                                           'Header' => 'module.hpp',
                                           'InLine' => 2,
                                           'Line' => '48',
                                           'MnglName' => '_ZNK9exactreal6ModuleINS_13RationalFieldEE5basisEv',
                                           'Param' => {
                                                        '0' => {
                                                                 'name' => 'this',
                                                                 'type' => '4474232'
                                                               }
                                                      },
                                           'Return' => '3075611',
                                           'ShortName' => 'basis',
                                           'Source' => 'module.cc',
                                           'SourceLine' => '121'
                                         },
                            '3049724' => {
                                           'Class' => '3049475',
                                           'Const' => 1,
                                           'Header' => 'module.hpp',
                                           'InLine' => 2,
                                           'Line' => '49',
                                           'MnglName' => '_ZNK9exactreal6ModuleINS_13RationalFieldEE3genEl',
                                           'Param' => {
                                                        '0' => {
                                                                 'name' => 'this',
                                                                 'type' => '4474232'
                                                               },
                                                        '1' => {
                                                                 'name' => 'j',
                                                                 'type' => '3046995'
                                                               }
                                                      },
                                           'Return' => '3047465',
                                           'ShortName' => 'gen',
                                           'Source' => 'module.cc',
                                           'SourceLine' => '181'
                                         },
                            '3049762' => {
                                           'Class' => '3049475',
                                           'Const' => 1,
                                           'Header' => 'module.hpp',
                                           'InLine' => 2,
                                           'Line' => '50',
                                           'MnglName' => '_ZNK9exactreal6ModuleINS_13RationalFieldEE4zeroEv',
                                           'Param' => {
                                                        '0' => {
                                                                 'name' => 'this',
                                                                 'type' => '4474232'
                                                               }
                                                      },
                                           'Return' => '3047465',
                                           'ShortName' => 'zero',
                                           'Source' => 'module.cc',
                                           'SourceLine' => '188'
                                         },
                            '3049794' => {
                                           'Class' => '3049475',
                                           'Const' => 1,
                                           'Header' => 'module.hpp',
                                           'InLine' => 2,
                                           'Line' => '53',
                                           'MnglName' => '_ZNK9exactreal6ModuleINS_13RationalFieldEEeqERKS2_',
                                           'Param' => {
                                                        '0' => {
                                                                 'name' => 'this',
                                                                 'type' => '4474232'
                                                               },
                                                        '1' => {
                                                                 'name' => 'rhs',
                                                                 'type' => '3075126'
                                                               }
                                                      },
                                           'Return' => '314462',
                                           'ShortName' => 'operator==',
                                           'Source' => 'module.cc',
                                           'SourceLine' => '131'
                                         },
                            '3049831' => {
                                           'Class' => '3049475',
                                           'Header' => 'module.hpp',
                                           'InLine' => 2,
                                           'Line' => '58',
                                           'MnglName' => '_ZN9exactreal6ModuleINS_13RationalFieldEE4spanERKSt10shared_ptrIKS2_ES7_',
                                           'Param' => {
                                                        '0' => {
                                                                 'name' => 'm',
                                                                 'type' => '3074623'
                                                               },
                                                        '1' => {
                                                                 'name' => 'n',
                                                                 'type' => '3074623'
                                                               }
                                                      },
                                           'Return' => '2724565',
                                           'ShortName' => 'span',
                                           'Source' => 'module.cc',
                                           'SourceLine' => '137',
                                           'Static' => 1
                                         },
                            '3050673' => {
                                           'Class' => '3050371',
                                           'Const' => 1,
                                           'Header' => 'element.hpp',
                                           'InLine' => 2,
                                           'Line' => '60',
                                           'MnglName' => '_ZNK9exactreal7ElementINS_11NumberFieldEEixEl',
                                           'Param' => {
                                                        '0' => {
                                                                 'name' => 'this',
                                                                 'type' => '3076776'
                                                               },
                                                        '1' => {
                                                                 'name' => 'i',
                                                                 'type' => '3047008'
                                                               }
                                                      },
                                           'Return' => '384296',
                                           'ShortName' => 'operator[]',
                                           'Source' => 'element.cc',
                                           'SourceLine' => '130'
                                         },
                            '3050745' => {
                                           'Class' => '3050371',
                                           'Const' => 1,
                                           'Header' => 'element.hpp',
                                           'InLine' => 2,
                                           'Line' => '70',
                                           'MnglName' => '_ZNK9exactreal7ElementINS_11NumberFieldEE3arbEl',
                                           'Param' => {
                                                        '0' => {
                                                                 'name' => 'this',
                                                                 'type' => '3076776'
                                                               },
                                                        '1' => {
                                                                 'name' => 'accuracy',
                                                                 'type' => '313286'
                                                               }
                                                      },
                                           'Return' => '382005',
                                           'ShortName' => 'arb',
                                           'Source' => 'element.cc',
                                           'SourceLine' => '163'
                                         },
                            '3050782' => {
                                           'Class' => '3050371',
                                           'Header' => 'element.hpp',
                                           'InLine' => 2,
                                           'Line' => '72',
                                           'MnglName' => '_ZN9exactreal7ElementINS_11NumberFieldEEpLERKS2_',
                                           'Param' => {
                                                        '0' => {
                                                                 'name' => 'this',
                                                                 'type' => '3076753'
                                                               },
                                                        '1' => {
                                                                 'name' => 'rhs',
                                                                 'type' => '3076787'
                                                               }
                                                      },
                                           'Return' => '3076781',
                                           'ShortName' => 'operator+=',
                                           'Source' => 'element.cc',
                                           'SourceLine' => '183'
                                         },
                            '3050818' => {
                                           'Class' => '3050371',
                                           'Header' => 'element.hpp',
                                           'InLine' => 2,
                                           'Line' => '73',
                                           'MnglName' => '_ZN9exactreal7ElementINS_11NumberFieldEEmIERKS2_',
                                           'Param' => {
                                                        '0' => {
                                                                 'name' => 'this',
                                                                 'type' => '3076753'
                                                               },
                                                        '1' => {
                                                                 'name' => 'rhs',
                                                                 'type' => '3076787'
                                                               }
                                                      },
                                           'Return' => '3076781',
                                           'ShortName' => 'operator-=',
                                           'Source' => 'element.cc',
                                           'SourceLine' => '196'
                                         },
                            '3050854' => {
                                           'Class' => '3050371',
                                           'Header' => 'element.hpp',
                                           'InLine' => 2,
                                           'Line' => '74',
                                           'MnglName' => '_ZN9exactreal7ElementINS_11NumberFieldEEmLERKS2_',
                                           'Param' => {
                                                        '0' => {
                                                                 'name' => 'this',
                                                                 'type' => '3076753'
                                                               },
                                                        '1' => {
                                                                 'name' => 'rhs',
                                                                 'type' => '3076787'
                                                               }
                                                      },
                                           'Return' => '3076781',
                                           'ShortName' => 'operator*=',
                                           'Source' => 'element.cc',
                                           'SourceLine' => '201'
                                         },
                            '3050890' => {
                                           'Class' => '3050371',
                                           'Header' => 'element.hpp',
                                           'InLine' => 2,
                                           'Line' => '75',
                                           'MnglName' => '_ZN9exactreal7ElementINS_11NumberFieldEEmLERKNS_10RealNumberE',
                                           'Param' => {
                                                        '0' => {
                                                                 'name' => 'this',
                                                                 'type' => '3076753'
                                                               },
                                                        '1' => {
                                                                 'name' => 'rhs',
                                                                 'type' => '436411'
                                                               }
                                                      },
                                           'Return' => '3076781',
                                           'ShortName' => 'operator*=',
                                           'Source' => 'element.cc',
                                           'SourceLine' => '243'
                                         },
                            '3050926' => {
                                           'Class' => '3050371',
                                           'Const' => 1,
                                           'Header' => 'element.hpp',
                                           'InLine' => 2,
                                           'Line' => '76',
                                           'MnglName' => '_ZNK9exactreal7ElementINS_11NumberFieldEEngEv',
                                           'Param' => {
                                                        '0' => {
                                                                 'name' => 'this',
                                                                 'type' => '3076776'
                                                               }
                                                      },
                                           'Return' => '3050371',
                                           'ShortName' => 'operator-',
                                           'Source' => 'element.cc',
                                           'SourceLine' => '248'
                                         },
                            '3050957' => {
                                           'Class' => '3050371',
                                           'Const' => 1,
                                           'Header' => 'element.hpp',
                                           'InLine' => 2,
                                           'Line' => '86',
                                           'MnglName' => '_ZNK9exactreal7ElementINS_11NumberFieldEE7truedivERKS2_',
                                           'Param' => {
                                                        '0' => {
                                                                 'name' => 'this',
                                                                 'type' => '3076776'
                                                               },
                                                        '1' => {
                                                                 'name' => 'rhs',
                                                                 'type' => '3076787'
                                                               }
                                                      },
                                           'Return' => '2746395',
                                           'ShortName' => 'truediv',
                                           'Source' => 'element.cc',
                                           'SourceLine' => '276'
                                         },
                            '3050994' => {
                                           'Class' => '3050371',
                                           'Const' => 1,
                                           'Header' => 'element.hpp',
                                           'InLine' => 2,
                                           'Line' => '87',
                                           'MnglName' => '_ZNK9exactreal7ElementINS_11NumberFieldEE8floordivERKS2_',
                                           'Param' => {
                                                        '0' => {
                                                                 'name' => 'this',
                                                                 'type' => '3076776'
                                                               },
                                                        '1' => {
                                                                 'name' => 'rhs',
                                                                 'type' => '3076787'
                                                               }
                                                      },
                                           'Return' => '333325',
                                           'ShortName' => 'floordiv',
                                           'Source' => 'element.cc',
                                           'SourceLine' => '325'
                                         },
                            '3051031' => {
                                           'Class' => '3050371',
                                           'Const' => 1,
                                           'Header' => 'element.hpp',
                                           'InLine' => 2,
                                           'Line' => '90',
                                           'MnglName' => '_ZNK9exactreal7ElementINS_11NumberFieldEE4unitEv',
                                           'Param' => {
                                                        '0' => {
                                                                 'name' => 'this',
                                                                 'type' => '3076776'
                                                               }
                                                      },
                                           'Return' => '314462',
                                           'ShortName' => 'unit',
                                           'Source' => 'element.cc',
                                           'SourceLine' => '380'
                                         },
                            '3051063' => {
                                           'Class' => '3050371',
                                           'Const' => 1,
                                           'Header' => 'element.hpp',
                                           'InLine' => 2,
                                           'Line' => '92',
                                           'MnglName' => '_ZNK9exactreal7ElementINS_11NumberFieldEE5floorEv',
                                           'Param' => {
                                                        '0' => {
                                                                 'name' => 'this',
                                                                 'type' => '3076776'
                                                               }
                                                      },
                                           'Return' => '333325',
                                           'ShortName' => 'floor',
                                           'Source' => 'element.cc',
                                           'SourceLine' => '398'
                                         },
                            '3051095' => {
                                           'Class' => '3050371',
                                           'Const' => 1,
                                           'Header' => 'element.hpp',
                                           'InLine' => 2,
                                           'Line' => '93',
                                           'MnglName' => '_ZNK9exactreal7ElementINS_11NumberFieldEE4ceilEv',
                                           'Param' => {
                                                        '0' => {
                                                                 'name' => 'this',
                                                                 'type' => '3076776'
                                                               }
                                                      },
                                           'Return' => '333325',
                                           'ShortName' => 'ceil',
                                           'Source' => 'element.cc',
                                           'SourceLine' => '412'
                                         },
                            '3051127' => {
                                           'Class' => '3050371',
                                           'Const' => 1,
                                           'Header' => 'element.hpp',
                                           'InLine' => 2,
                                           'Line' => '95',
                                           'MnglName' => '_ZNK9exactreal7ElementINS_11NumberFieldEEeqERKS2_',
                                           'Param' => {
                                                        '0' => {
                                                                 'name' => 'this',
                                                                 'type' => '3076776'
                                                               },
                                                        '1' => {
                                                                 'name' => 'rhs',
                                                                 'type' => '3076787'
                                                               }
                                                      },
                                           'Return' => '314462',
                                           'ShortName' => 'operator==',
                                           'Source' => 'element.cc',
                                           'SourceLine' => '519'
                                         },
                            '3051164' => {
                                           'Class' => '3050371',
                                           'Const' => 1,
                                           'Header' => 'element.hpp',
                                           'InLine' => 2,
                                           'Line' => '96',
                                           'MnglName' => '_ZNK9exactreal7ElementINS_11NumberFieldEEltERKS2_',
                                           'Param' => {
                                                        '0' => {
                                                                 'name' => 'this',
                                                                 'type' => '3076776'
                                                               },
                                                        '1' => {
                                                                 'name' => 'rhs',
                                                                 'type' => '3076787'
                                                               }
                                                      },
                                           'Return' => '314462',
                                           'ShortName' => 'operator<',
                                           'Source' => 'element.cc',
                                           'SourceLine' => '426'
                                         },
                            '3051201' => {
                                           'Class' => '3050371',
                                           'Const' => 1,
                                           'Header' => 'element.hpp',
                                           'InLine' => 2,
                                           'Line' => '98',
                                           'MnglName' => '_ZNK9exactreal7ElementINS_11NumberFieldEEeqERKNS_10RealNumberE',
                                           'Param' => {
                                                        '0' => {
                                                                 'name' => 'this',
                                                                 'type' => '3076776'
                                                               },
                                                        '1' => {
                                                                 'name' => 'rhs',
                                                                 'type' => '436411'
                                                               }
                                                      },
                                           'Return' => '314462',
                                           'ShortName' => 'operator==',
                                           'Source' => 'element.cc',
                                           'SourceLine' => '529'
                                         },
                            '3051238' => {
                                           'Class' => '3050371',
                                           'Const' => 1,
                                           'Header' => 'element.hpp',
                                           'InLine' => 2,
                                           'Line' => '99',
                                           'MnglName' => '_ZNK9exactreal7ElementINS_11NumberFieldEEltERKNS_10RealNumberE',
                                           'Param' => {
                                                        '0' => {
                                                                 'name' => 'this',
                                                                 'type' => '3076776'
                                                               },
                                                        '1' => {
                                                                 'name' => 'rhs',
                                                                 'type' => '436411'
                                                               }
                                                      },
                                           'Return' => '314462',
                                           'ShortName' => 'operator<',
                                           'Source' => 'element.cc',
                                           'SourceLine' => '461'
                                         },
                            '3051275' => {
                                           'Class' => '3050371',
                                           'Const' => 1,
                                           'Header' => 'element.hpp',
                                           'InLine' => 2,
                                           'Line' => '100',
                                           'MnglName' => '_ZNK9exactreal7ElementINS_11NumberFieldEEgtERKNS_10RealNumberE',
                                           'Param' => {
                                                        '0' => {
                                                                 'name' => 'this',
                                                                 'type' => '3076776'
                                                               },
                                                        '1' => {
                                                                 'name' => 'rhs',
                                                                 'type' => '436411'
                                                               }
                                                      },
                                           'Return' => '314462',
                                           'ShortName' => 'operator>',
                                           'Source' => 'element.cc',
                                           'SourceLine' => '466'
                                         },
                            '3051312' => {
                                           'Class' => '3050371',
                                           'Const' => 1,
                                           'Header' => 'element.hpp',
                                           'InLine' => 2,
                                           'Line' => '102',
                                           'MnglName' => '_ZNK9exactreal7ElementINS_11NumberFieldEEeqERK10__gmp_exprIA1_12__mpq_structS5_E',
                                           'Param' => {
                                                        '0' => {
                                                                 'name' => 'this',
                                                                 'type' => '3076776'
                                                               },
                                                        '1' => {
                                                                 'name' => 'rhs',
                                                                 'type' => '385562'
                                                               }
                                                      },
                                           'Return' => '314462',
                                           'ShortName' => 'operator==',
                                           'Source' => 'element.cc',
                                           'SourceLine' => '481'
                                         },
                            '3051349' => {
                                           'Class' => '3050371',
                                           'Const' => 1,
                                           'Header' => 'element.hpp',
                                           'InLine' => 2,
                                           'Line' => '103',
                                           'MnglName' => '_ZNK9exactreal7ElementINS_11NumberFieldEEltERK10__gmp_exprIA1_12__mpq_structS5_E',
                                           'Param' => {
                                                        '0' => {
                                                                 'name' => 'this',
                                                                 'type' => '3076776'
                                                               },
                                                        '1' => {
                                                                 'name' => 'rhs',
                                                                 'type' => '385562'
                                                               }
                                                      },
                                           'Return' => '314462',
                                           'ShortName' => 'operator<',
                                           'Source' => 'element.cc',
                                           'SourceLine' => '431'
                                         },
                            '3051386' => {
                                           'Class' => '3050371',
                                           'Const' => 1,
                                           'Header' => 'element.hpp',
                                           'InLine' => 2,
                                           'Line' => '104',
                                           'MnglName' => '_ZNK9exactreal7ElementINS_11NumberFieldEEgtERK10__gmp_exprIA1_12__mpq_structS5_E',
                                           'Param' => {
                                                        '0' => {
                                                                 'name' => 'this',
                                                                 'type' => '3076776'
                                                               },
                                                        '1' => {
                                                                 'name' => 'rhs',
                                                                 'type' => '385562'
                                                               }
                                                      },
                                           'Return' => '314462',
                                           'ShortName' => 'operator>',
                                           'Source' => 'element.cc',
                                           'SourceLine' => '436'
                                         },
                            '3051423' => {
                                           'Class' => '3050371',
                                           'Const' => 1,
                                           'Header' => 'element.hpp',
                                           'InLine' => 2,
                                           'Line' => '106',
                                           'MnglName' => '_ZNK9exactreal7ElementINS_11NumberFieldEEeqERK10__gmp_exprIA1_12__mpz_structS5_E',
                                           'Param' => {
                                                        '0' => {
                                                                 'name' => 'this',
                                                                 'type' => '3076776'
                                                               },
                                                        '1' => {
                                                                 'name' => 'rhs',
                                                                 'type' => '337144'
                                                               }
                                                      },
                                           'Return' => '314462',
                                           'ShortName' => 'operator==',
                                           'Source' => 'element.cc',
                                           'SourceLine' => '471'
                                         },
                            '3051460' => {
                                           'Class' => '3050371',
                                           'Const' => 1,
                                           'Header' => 'element.hpp',
                                           'InLine' => 2,
                                           'Line' => '107',
                                           'MnglName' => '_ZNK9exactreal7ElementINS_11NumberFieldEEltERK10__gmp_exprIA1_12__mpz_structS5_E',
                                           'Param' => {
                                                        '0' => {
                                                                 'name' => 'this',
                                                                 'type' => '3076776'
                                                               },
                                                        '1' => {
                                                                 'name' => 'rhs',
                                                                 'type' => '337144'
                                                               }
                                                      },
                                           'Return' => '314462',
                                           'ShortName' => 'operator<',
                                           'Source' => 'element.cc',
                                           'SourceLine' => '441'
                                         },
                            '3051497' => {
                                           'Class' => '3050371',
                                           'Const' => 1,
                                           'Header' => 'element.hpp',
                                           'InLine' => 2,
                                           'Line' => '108',
                                           'MnglName' => '_ZNK9exactreal7ElementINS_11NumberFieldEEgtERK10__gmp_exprIA1_12__mpz_structS5_E',
                                           'Param' => {
                                                        '0' => {
                                                                 'name' => 'this',
                                                                 'type' => '3076776'
                                                               },
                                                        '1' => {
                                                                 'name' => 'rhs',
                                                                 'type' => '337144'
                                                               }
                                                      },
                                           'Return' => '314462',
                                           'ShortName' => 'operator>',
                                           'Source' => 'element.cc',
                                           'SourceLine' => '446'
                                         },
                            '3051534' => {
                                           'Class' => '3050371',
                                           'Const' => 1,
                                           'Header' => 'element.hpp',
                                           'InLine' => 2,
                                           'Line' => '110',
                                           'MnglName' => '_ZNK9exactreal7ElementINS_11NumberFieldEEeqEx',
                                           'Param' => {
                                                        '0' => {
                                                                 'name' => 'this',
                                                                 'type' => '3076776'
                                                               },
                                                        '1' => {
                                                                 'name' => 'rhs',
                                                                 'type' => '313961'
                                                               }
                                                      },
                                           'Return' => '314462',
                                           'ShortName' => 'operator==',
                                           'Source' => 'element.cc',
                                           'SourceLine' => '476'
                                         },
                            '3051571' => {
                                           'Class' => '3050371',
                                           'Const' => 1,
                                           'Header' => 'element.hpp',
                                           'InLine' => 2,
                                           'Line' => '111',
                                           'MnglName' => '_ZNK9exactreal7ElementINS_11NumberFieldEEltEx',
                                           'Param' => {
                                                        '0' => {
                                                                 'name' => 'this',
                                                                 'type' => '3076776'
                                                               },
                                                        '1' => {
                                                                 'name' => 'rhs',
                                                                 'type' => '313961'
                                                               }
                                                      },
                                           'Return' => '314462',
                                           'ShortName' => 'operator<',
                                           'Source' => 'element.cc',
                                           'SourceLine' => '451'
                                         },
                            '3051608' => {
                                           'Class' => '3050371',
                                           'Const' => 1,
                                           'Header' => 'element.hpp',
                                           'InLine' => 2,
                                           'Line' => '112',
                                           'MnglName' => '_ZNK9exactreal7ElementINS_11NumberFieldEEgtEx',
                                           'Param' => {
                                                        '0' => {
                                                                 'name' => 'this',
                                                                 'type' => '3076776'
                                                               },
                                                        '1' => {
                                                                 'name' => 'rhs',
                                                                 'type' => '313961'
                                                               }
                                                      },
                                           'Return' => '314462',
                                           'ShortName' => 'operator>',
                                           'Source' => 'element.cc',
                                           'SourceLine' => '456'
                                         },
                            '3051645' => {
                                           'Class' => '3050371',
                                           'Const' => 1,
                                           'Header' => 'element.hpp',
                                           'InLine' => 2,
                                           'Line' => '114',
                                           'MnglName' => '_ZNK9exactreal7ElementINS_11NumberFieldEEcvbEv',
                                           'Param' => {
                                                        '0' => {
                                                                 'name' => 'this',
                                                                 'type' => '3076776'
                                                               }
                                                      },
                                           'Return' => '314462',
                                           'ShortName' => 'operator bool',
                                           'Source' => 'element.cc',
                                           'SourceLine' => '553'
                                         },
                            '3051678' => {
                                           'Class' => '3050371',
                                           'Const' => 1,
                                           'Header' => 'element.hpp',
                                           'InLine' => 2,
                                           'Line' => '116',
                                           'MnglName' => '_ZNK9exactreal7ElementINS_11NumberFieldEEcvdEv',
                                           'Param' => {
                                                        '0' => {
                                                                 'name' => 'this',
                                                                 'type' => '3076776'
                                                               }
                                                      },
                                           'Return' => '313165',
                                           'ShortName' => 'operator double',
                                           'Source' => 'element.cc',
                                           'SourceLine' => '558'
                                         },
                            '3051711' => {
                                           'Class' => '3050371',
                                           'Const' => 1,
                                           'Header' => 'element.hpp',
                                           'InLine' => 2,
                                           'Line' => '118',
                                           'MnglName' => '_ZNK9exactreal7ElementINS_11NumberFieldEEcvSt8optionalI10__gmp_exprIA1_12__mpz_structS6_EEEv',
                                           'Param' => {
                                                        '0' => {
                                                                 'name' => 'this',
                                                                 'type' => '3076776'
                                                               }
                                                      },
                                           'Return' => '2713103',
                                           'ShortName' => 'operator std::optional<__gmp_expr<__mpz_struct[1], __mpz_struct[1]> >',
                                           'Source' => 'element.cc',
                                           'SourceLine' => '487',
                                           'TParam' => {
                                                         '0' => {
                                                                  'type' => 325536
                                                                }
                                                       }
                                         },
                            '3051744' => {
                                           'Class' => '3050371',
                                           'Const' => 1,
                                           'Header' => 'element.hpp',
                                           'InLine' => 2,
                                           'Line' => '119',
                                           'MnglName' => '_ZNK9exactreal7ElementINS_11NumberFieldEEcvSt8optionalI10__gmp_exprIA1_12__mpq_structS6_EEEv',
                                           'Param' => {
                                                        '0' => {
                                                                 'name' => 'this',
                                                                 'type' => '3076776'
                                                               }
                                                      },
                                           'Return' => '256640',
                                           'ShortName' => 'operator std::optional<__gmp_expr<__mpq_struct[1], __mpq_struct[1]> >',
                                           'Source' => 'element.cc',
                                           'SourceLine' => '497',
                                           'TParam' => {
                                                         '0' => {
                                                                  'type' => 333343
                                                                }
                                                       }
                                         },
                            '3051777' => {
                                           'Class' => '3050371',
                                           'Const' => 1,
                                           'Header' => 'element.hpp',
                                           'InLine' => 2,
                                           'Line' => '121',
                                           'MnglName' => '_ZNK9exactreal7ElementINS_11NumberFieldEE6moduleEv',
                                           'Param' => {
                                                        '0' => {
                                                                 'name' => 'this',
                                                                 'type' => '3076776'
                                                               }
                                                      },
                                           'Return' => '2743016',
                                           'ShortName' => 'module',
                                           'Source' => 'element.cc',
                                           'SourceLine' => '599'
                                         },
                            '3051809' => {
                                           'Class' => '3050371',
                                           'Header' => 'element.hpp',
                                           'InLine' => 2,
                                           'Line' => '125',
                                           'MnglName' => '_ZN9exactreal7ElementINS_11NumberFieldEE7promoteERKSt10shared_ptrIKNS_6ModuleIS1_EEE',
                                           'Param' => {
                                                        '0' => {
                                                                 'name' => 'this',
                                                                 'type' => '3076753'
                                                               },
                                                        '1' => {
                                                                 'name' => 'parent',
                                                                 'type' => '3076758'
                                                               }
                                                      },
                                           'Return' => '3076781',
                                           'ShortName' => 'promote',
                                           'Source' => 'element.cc',
                                           'SourceLine' => '604'
                                         },
                            '3051846' => {
                                           'Class' => '3050371',
                                           'Header' => 'element.hpp',
                                           'InLine' => 2,
                                           'Line' => '132',
                                           'MnglName' => '_ZN9exactreal7ElementINS_11NumberFieldEE8simplifyEv',
                                           'Param' => {
                                                        '0' => {
                                                                 'name' => 'this',
                                                                 'type' => '3076753'
                                                               }
                                                      },
                                           'Return' => '3076781',
                                           'ShortName' => 'simplify',
                                           'Source' => 'element.cc',
                                           'SourceLine' => '649'
                                         },
                            '3052046' => {
                                           'Class' => '3050371',
                                           'Const' => 1,
                                           'Header' => 'element.hpp',
                                           'InLine' => 2,
                                           'MnglName' => '_ZNK9exactreal7ElementINS_11NumberFieldEE12coefficientsIN6eantic15renf_elem_classEEESt6vectorIT_SaIS7_EEv',
                                           'Param' => {
                                                        '0' => {
                                                                 'name' => 'this',
                                                                 'type' => '3076776'
                                                               }
                                                      },
                                           'Return' => '2743021',
                                           'ShortName' => 'coefficients<eantic::renf_elem_class>',
                                           'Source' => 'element.cc',
                                           'SourceLine' => '136',
                                           'TParam' => {
                                                         '0' => {
                                                                  'key' => 'C',
                                                                  'type' => '385586'
                                                                }
                                                       }
                                         },
                            '3052084' => {
                                           'Class' => '3050371',
                                           'Const' => 1,
                                           'Header' => 'element.hpp',
                                           'InLine' => 2,
                                           'MnglName' => '_ZNK9exactreal7ElementINS_11NumberFieldEE12coefficientsI10__gmp_exprIA1_12__mpq_structS6_EEESt6vectorIT_SaIS9_EEv',
                                           'Param' => {
                                                        '0' => {
                                                                 'name' => 'this',
                                                                 'type' => '3076776'
                                                               }
                                                      },
                                           'Return' => '2695537',
                                           'ShortName' => 'coefficients<__gmp_expr<__mpq_struct[1], __mpq_struct[1]> >',
                                           'Source' => 'element.cc',
                                           'SourceLine' => '136',
                                           'TParam' => {
                                                         '0' => {
                                                                  'key' => 'C',
                                                                  'type' => '333343'
                                                                }
                                                       }
                                         },
                            '3052122' => {
                                           'Class' => '3050371',
                                           'Header' => 'element.hpp',
                                           'InLine' => 2,
                                           'MnglName' => '_ZN9exactreal7ElementINS_11NumberFieldEEdVIN6eantic15renf_elem_classES5_vEERS2_RKT_',
                                           'Param' => {
                                                        '0' => {
                                                                 'name' => 'this',
                                                                 'type' => '3076753'
                                                               },
                                                        '1' => {
                                                                 'name' => 'rhs',
                                                                 'type' => '385568'
                                                               }
                                                      },
                                           'Return' => '3076781',
                                           'ShortName' => 'operator/=<eantic::renf_elem_class>',
                                           'Source' => 'element.cc',
                                           'SourceLine' => '268',
                                           'TParam' => {
                                                         '0' => {
                                                                  'key' => 'T',
                                                                  'type' => '385586'
                                                                }
                                                       }
                                         },
                            '3052166' => {
                                           'Class' => '3050371',
                                           'Header' => 'element.hpp',
                                           'InLine' => 2,
                                           'MnglName' => '_ZN9exactreal7ElementINS_11NumberFieldEEdVI10__gmp_exprIA1_12__mpq_structS6_EN6eantic15renf_elem_classEvEERS2_RKT_',
                                           'Param' => {
                                                        '0' => {
                                                                 'name' => 'this',
                                                                 'type' => '3076753'
                                                               },
                                                        '1' => {
                                                                 'name' => 'rhs',
                                                                 'type' => '337132'
                                                               }
                                                      },
                                           'Return' => '3076781',
                                           'ShortName' => 'operator/=<__gmp_expr<__mpq_struct[1], __mpq_struct[1]> >',
                                           'Source' => 'element.cc',
                                           'SourceLine' => '268',
                                           'TParam' => {
                                                         '0' => {
                                                                  'key' => 'T',
                                                                  'type' => '333343'
                                                                }
                                                       }
                                         },
                            '3052210' => {
                                           'Class' => '3050371',
                                           'Header' => 'element.hpp',
                                           'InLine' => 2,
                                           'MnglName' => '_ZN9exactreal7ElementINS_11NumberFieldEEdVI10__gmp_exprIA1_12__mpz_structS6_EN6eantic15renf_elem_classEvEERS2_RKT_',
                                           'Param' => {
                                                        '0' => {
                                                                 'name' => 'this',
                                                                 'type' => '3076753'
                                                               },
                                                        '1' => {
                                                                 'name' => 'rhs',
                                                                 'type' => '331537'
                                                               }
                                                      },
                                           'Return' => '3076781',
                                           'ShortName' => 'operator/=<__gmp_expr<__mpz_struct[1], __mpz_struct[1]> >',
                                           'Source' => 'element.cc',
                                           'SourceLine' => '268',
                                           'TParam' => {
                                                         '0' => {
                                                                  'key' => 'T',
                                                                  'type' => '325536'
                                                                }
                                                       }
                                         },
                            '3052254' => {
                                           'Class' => '3050371',
                                           'Header' => 'element.hpp',
                                           'InLine' => 2,
                                           'MnglName' => '_ZN9exactreal7ElementINS_11NumberFieldEEdVIiN6eantic15renf_elem_classEvEERS2_RKT_',
                                           'Param' => {
                                                        '0' => {
                                                                 'name' => 'this',
                                                                 'type' => '3076753'
                                                               },
                                                        '1' => {
                                                                 'name' => 'rhs',
                                                                 'type' => '323017'
                                                               }
                                                      },
                                           'Return' => '3076781',
                                           'ShortName' => 'operator/=<int>',
                                           'Source' => 'element.cc',
                                           'SourceLine' => '268',
                                           'TParam' => {
                                                         '0' => {
                                                                  'key' => 'T',
                                                                  'type' => '311699'
                                                                }
                                                       }
                                         },
                            '3052298' => {
                                           'Class' => '3050371',
                                           'Header' => 'element.hpp',
                                           'InLine' => 2,
                                           'MnglName' => '_ZN9exactreal7ElementINS_11NumberFieldEEmLIN6eantic15renf_elem_classES5_EERS2_RKT_',
                                           'Param' => {
                                                        '0' => {
                                                                 'name' => 'this',
                                                                 'type' => '3076753'
                                                               },
                                                        '1' => {
                                                                 'name' => 'rhs',
                                                                 'type' => '385568'
                                                               }
                                                      },
                                           'Return' => '3076781',
                                           'ShortName' => 'operator*=<eantic::renf_elem_class>',
                                           'Source' => 'element.cc',
                                           'SourceLine' => '259',
                                           'TParam' => {
                                                         '0' => {
                                                                  'key' => 'T',
                                                                  'type' => '385586'
                                                                }
                                                       }
                                         },
                            '3052342' => {
                                           'Class' => '3050371',
                                           'Header' => 'element.hpp',
                                           'InLine' => 2,
                                           'MnglName' => '_ZN9exactreal7ElementINS_11NumberFieldEEmLI10__gmp_exprIA1_12__mpq_structS6_EN6eantic15renf_elem_classEEERS2_RKT_',
                                           'Param' => {
                                                        '0' => {
                                                                 'name' => 'this',
                                                                 'type' => '3076753'
                                                               },
                                                        '1' => {
                                                                 'name' => 'rhs',
                                                                 'type' => '337132'
                                                               }
                                                      },
                                           'Return' => '3076781',
                                           'ShortName' => 'operator*=<__gmp_expr<__mpq_struct[1], __mpq_struct[1]> >',
                                           'Source' => 'element.cc',
                                           'SourceLine' => '259',
                                           'TParam' => {
                                                         '0' => {
                                                                  'key' => 'T',
                                                                  'type' => '333343'
                                                                }
                                                       }
                                         },
                            '3052386' => {
                                           'Class' => '3050371',
                                           'Header' => 'element.hpp',
                                           'InLine' => 2,
                                           'MnglName' => '_ZN9exactreal7ElementINS_11NumberFieldEEmLI10__gmp_exprIA1_12__mpz_structS6_EN6eantic15renf_elem_classEEERS2_RKT_',
                                           'Param' => {
                                                        '0' => {
                                                                 'name' => 'this',
                                                                 'type' => '3076753'
                                                               },
                                                        '1' => {
                                                                 'name' => 'rhs',
                                                                 'type' => '331537'
                                                               }
                                                      },
                                           'Return' => '3076781',
                                           'ShortName' => 'operator*=<__gmp_expr<__mpz_struct[1], __mpz_struct[1]> >',
                                           'Source' => 'element.cc',
                                           'SourceLine' => '259',
                                           'TParam' => {
                                                         '0' => {
                                                                  'key' => 'T',
                                                                  'type' => '325536'
                                                                }
                                                       }
                                         },
                            '3052430' => {
                                           'Class' => '3050371',
                                           'Header' => 'element.hpp',
                                           'InLine' => 2,
                                           'MnglName' => '_ZN9exactreal7ElementINS_11NumberFieldEEmLIiN6eantic15renf_elem_classEEERS2_RKT_',
                                           'Param' => {
                                                        '0' => {
                                                                 'name' => 'this',
                                                                 'type' => '3076753'
                                                               },
                                                        '1' => {
                                                                 'name' => 'rhs',
                                                                 'type' => '323017'
                                                               }
                                                      },
                                           'Return' => '3076781',
                                           'ShortName' => 'operator*=<int>',
                                           'Source' => 'element.cc',
                                           'SourceLine' => '259',
                                           'TParam' => {
                                                         '0' => {
                                                                  'key' => 'T',
                                                                  'type' => '311699'
                                                                }
                                                       }
                                         },
                            '3052522' => {
                                           'Class' => '3052489',
                                           'Header' => 'module.hpp',
                                           'InLine' => 2,
                                           'Line' => '37',
                                           'MnglName' => '_ZN9exactreal6ModuleINS_11NumberFieldEE4makeERKSt6vectorISt10shared_ptrIKNS_10RealNumberEESaIS7_EE',
                                           'Param' => {
                                                        '0' => {
                                                                 'name' => 'basis',
                                                                 'type' => '3086720'
                                                               }
                                                      },
                                           'Return' => '2742718',
                                           'ShortName' => 'make',
                                           'Source' => 'module.cc',
                                           'SourceLine' => '102',
                                           'Static' => 1
                                         },
                            '3052571' => {
                                           'Class' => '3052489',
                                           'Header' => 'module.hpp',
                                           'InLine' => 2,
                                           'Line' => '39',
                                           'MnglName' => '_ZN9exactreal6ModuleINS_11NumberFieldEE4makeERKSt6vectorISt10shared_ptrIKNS_10RealNumberEESaIS7_EERKS1_',
                                           'Param' => {
                                                        '0' => {
                                                                 'name' => 'basis_',
                                                                 'type' => '3086720'
                                                               },
                                                        '1' => {
                                                                 'name' => 'ring',
                                                                 'type' => '428578'
                                                               }
                                                      },
                                           'Return' => '2742718',
                                           'ShortName' => 'make',
                                           'Source' => 'module.cc',
                                           'SourceLine' => '107',
                                           'Static' => 1
                                         },
                            '3052605' => {
                                           'Class' => '3052489',
                                           'Const' => 1,
                                           'Header' => 'module.hpp',
                                           'InLine' => 2,
                                           'Line' => '42',
                                           'MnglName' => '_ZNK9exactreal6ModuleINS_11NumberFieldEE4ringEv',
                                           'Param' => {
                                                        '0' => {
                                                                 'name' => 'this',
                                                                 'type' => '4474717'
                                                               }
                                                      },
                                           'Return' => '428578',
                                           'ShortName' => 'ring',
                                           'Source' => 'module.cc',
                                           'SourceLine' => '126'
                                         },
                            '3052637' => {
                                           'Class' => '3052489',
                                           'Const' => 1,
                                           'Header' => 'module.hpp',
                                           'InLine' => 2,
                                           'Line' => '44',
                                           'MnglName' => '_ZNK9exactreal6ModuleINS_11NumberFieldEE4rankEv',
                                           'Param' => {
                                                        '0' => {
                                                                 'name' => 'this',
                                                                 'type' => '4474717'
                                                               }
                                                      },
                                           'Return' => '3046995',
                                           'ShortName' => 'rank',
                                           'Source' => 'module.cc',
                                           'SourceLine' => '116'
                                         },
                            '3052669' => {
                                           'Class' => '3052489',
                                           'Const' => 1,
                                           'Header' => 'module.hpp',
                                           'InLine' => 2,
                                           'Line' => '46',
                                           'MnglName' => '_ZNK9exactreal6ModuleINS_11NumberFieldEE9submoduleERKS2_',
                                           'Param' => {
                                                        '0' => {
                                                                 'name' => 'this',
                                                                 'type' => '4474717'
                                                               },
                                                        '1' => {
                                                                 'name' => 'supermodule',
                                                                 'type' => '3086726'
                                                               }
                                                      },
                                           'Return' => '314462',
                                           'ShortName' => 'submodule',
                                           'Source' => 'module.cc',
                                           'SourceLine' => '170'
                                         },
                            '3052706' => {
                                           'Class' => '3052489',
                                           'Const' => 1,
                                           'Header' => 'module.hpp',
                                           'InLine' => 2,
                                           'Line' => '48',
                                           'MnglName' => '_ZNK9exactreal6ModuleINS_11NumberFieldEE5basisEv',
                                           'Param' => {
                                                        '0' => {
                                                                 'name' => 'this',
                                                                 'type' => '4474717'
                                                               }
                                                      },
                                           'Return' => '3075611',
                                           'ShortName' => 'basis',
                                           'Source' => 'module.cc',
                                           'SourceLine' => '121'
                                         },
                            '3052738' => {
                                           'Class' => '3052489',
                                           'Const' => 1,
                                           'Header' => 'module.hpp',
                                           'InLine' => 2,
                                           'Line' => '49',
                                           'MnglName' => '_ZNK9exactreal6ModuleINS_11NumberFieldEE3genEl',
                                           'Param' => {
                                                        '0' => {
                                                                 'name' => 'this',
                                                                 'type' => '4474717'
                                                               },
                                                        '1' => {
                                                                 'name' => 'j',
                                                                 'type' => '3046995'
                                                               }
                                                      },
                                           'Return' => '3050371',
                                           'ShortName' => 'gen',
                                           'Source' => 'module.cc',
                                           'SourceLine' => '181'
                                         },
                            '3052776' => {
                                           'Class' => '3052489',
                                           'Const' => 1,
                                           'Header' => 'module.hpp',
                                           'InLine' => 2,
                                           'Line' => '50',
                                           'MnglName' => '_ZNK9exactreal6ModuleINS_11NumberFieldEE4zeroEv',
                                           'Param' => {
                                                        '0' => {
                                                                 'name' => 'this',
                                                                 'type' => '4474717'
                                                               }
                                                      },
                                           'Return' => '3050371',
                                           'ShortName' => 'zero',
                                           'Source' => 'module.cc',
                                           'SourceLine' => '188'
                                         },
                            '3052808' => {
                                           'Class' => '3052489',
                                           'Const' => 1,
                                           'Header' => 'module.hpp',
                                           'InLine' => 2,
                                           'Line' => '53',
                                           'MnglName' => '_ZNK9exactreal6ModuleINS_11NumberFieldEEeqERKS2_',
                                           'Param' => {
                                                        '0' => {
                                                                 'name' => 'this',
                                                                 'type' => '4474717'
                                                               },
                                                        '1' => {
                                                                 'name' => 'rhs',
                                                                 'type' => '3086726'
                                                               }
                                                      },
                                           'Return' => '314462',
                                           'ShortName' => 'operator==',
                                           'Source' => 'module.cc',
                                           'SourceLine' => '131'
                                         },
                            '3052845' => {
                                           'Class' => '3052489',
                                           'Header' => 'module.hpp',
                                           'InLine' => 2,
                                           'Line' => '58',
                                           'MnglName' => '_ZN9exactreal6ModuleINS_11NumberFieldEE4spanERKSt10shared_ptrIKS2_ES7_',
                                           'Param' => {
                                                        '0' => {
                                                                 'name' => 'm',
                                                                 'type' => '3076758'
                                                               },
                                                        '1' => {
                                                                 'name' => 'n',
                                                                 'type' => '3076758'
                                                               }
                                                      },
                                           'Return' => '2742718',
                                           'ShortName' => 'span',
                                           'Source' => 'module.cc',
                                           'SourceLine' => '137',
                                           'Static' => 1
                                         },
                            '3053212' => {
                                           'InLine' => 2,
                                           'Line' => '670',
                                           'MnglName' => '_ZN9exactreallsINS_11NumberFieldEEERSoS2_RKNS_7ElementIT_EE',
                                           'NameSpace' => 'exactreal',
                                           'Param' => {
                                                        '0' => {
                                                                 'name' => 'out',
                                                                 'type' => '436447'
                                                               },
                                                        '1' => {
                                                                 'name' => 'self',
                                                                 'type' => '3076787'
                                                               }
                                                      },
                                           'Return' => '436447',
                                           'ShortName' => 'operator<< <exactreal::NumberField>',
                                           'Source' => 'element.cc',
                                           'TParam' => {
                                                         '0' => {
                                                                  'key' => 'R',
                                                                  'type' => '384070'
                                                                }
                                                       }
                                         },
                            '3053251' => {
                                           'InLine' => 2,
                                           'Line' => '670',
                                           'MnglName' => '_ZN9exactreallsINS_13RationalFieldEEERSoS2_RKNS_7ElementIT_EE',
                                           'NameSpace' => 'exactreal',
                                           'Param' => {
                                                        '0' => {
                                                                 'name' => 'out',
                                                                 'type' => '436447'
                                                               },
                                                        '1' => {
                                                                 'name' => 'self',
                                                                 'type' => '3074646'
                                                               }
                                                      },
                                           'Return' => '436447',
                                           'ShortName' => 'operator<< <exactreal::RationalField>',
                                           'Source' => 'element.cc',
                                           'TParam' => {
                                                         '0' => {
                                                                  'key' => 'R',
                                                                  'type' => '383749'
                                                                }
                                                       }
                                         },
                            '3053290' => {
                                           'InLine' => 2,
                                           'Line' => '670',
                                           'MnglName' => '_ZN9exactreallsINS_11IntegerRingEEERSoS2_RKNS_7ElementIT_EE',
                                           'NameSpace' => 'exactreal',
                                           'Param' => {
                                                        '0' => {
                                                                 'name' => 'out',
                                                                 'type' => '436447'
                                                               },
                                                        '1' => {
                                                                 'name' => 'self',
                                                                 'type' => '3073681'
                                                               }
                                                      },
                                           'Return' => '436447',
                                           'ShortName' => 'operator<< <exactreal::IntegerRing>',
                                           'Source' => 'element.cc',
                                           'TParam' => {
                                                         '0' => {
                                                                  'key' => 'R',
                                                                  'type' => '383427'
                                                                }
                                                       }
                                         },
                            '3136841' => {
                                           'Artificial' => 1,
                                           'Class' => '2741644',
                                           'Constructor' => 1,
                                           'Header' => 'tuple',
                                           'InLine' => 1,
                                           'Line' => '968',
                                           'MnglName' => '_ZNSt5tupleIJPN9exactreal7ElementINS0_11NumberFieldEE14ImplementationEPFvS5_EEEC2IRS5_RKS7_Lb1EEEOT_OT0_',
                                           'Param' => {
                                                        '0' => {
                                                                 'name' => 'this',
                                                                 'type' => '3076568'
                                                               },
                                                        '1' => {
                                                                 'name' => '__a1',
                                                                 'type' => '3076497'
                                                               },
                                                        '2' => {
                                                                 'name' => '__a2',
                                                                 'type' => '3076409'
                                                               }
                                                      },
                                           'ShortName' => 'tuple<exactreal::Element<exactreal::NumberField>::Implementation*&, void(*)(exactreal::Element<exactreal::NumberField>::Implementation*) const&>',
                                           'TParam' => {
                                                         '0' => {
                                                                  'key' => '_U1',
                                                                  'type' => '3076497'
                                                                },
                                                         '1' => {
                                                                  'key' => '_U2',
                                                                  'type' => '3076409'
                                                                }
                                                       }
                                         },
                            '3136842' => {
                                           'Artificial' => 1,
                                           'Class' => '2741644',
                                           'Constructor' => 1,
                                           'Header' => 'tuple',
                                           'InLine' => 1,
                                           'Line' => '968',
                                           'MnglName' => '_ZNSt5tupleIJPN9exactreal7ElementINS0_11NumberFieldEE14ImplementationEPFvS5_EEEC1IRS5_RKS7_Lb1EEEOT_OT0_',
                                           'Param' => {
                                                        '0' => {
                                                                 'name' => 'this',
                                                                 'type' => '3076568'
                                                               },
                                                        '1' => {
                                                                 'name' => '__a1',
                                                                 'type' => '3076497'
                                                               },
                                                        '2' => {
                                                                 'name' => '__a2',
                                                                 'type' => '3076409'
                                                               }
                                                      },
                                           'ShortName' => 'tuple<exactreal::Element<exactreal::NumberField>::Implementation*&, void(*)(exactreal::Element<exactreal::NumberField>::Implementation*) const&>',
                                           'TParam' => {
                                                         '0' => {
                                                                  'key' => '_U1',
                                                                  'type' => '3076497'
                                                                },
                                                         '1' => {
                                                                  'key' => '_U2',
                                                                  'type' => '3076409'
                                                                }
                                                       }
                                         },
                            '3136962' => {
                                           'Artificial' => 1,
                                           'Class' => '2741122',
                                           'Constructor' => 1,
                                           'Header' => 'tuple',
                                           'InLine' => 1,
                                           'Line' => '216',
                                           'MnglName' => '_ZNSt11_Tuple_implILm0EJPN9exactreal7ElementINS0_11NumberFieldEE14ImplementationEPFvS5_EEEC2IRS5_JRKS7_EvEEOT_DpOT0_',
                                           'Param' => {
                                                        '0' => {
                                                                 'name' => 'this',
                                                                 'type' => '3076539'
                                                               },
                                                        '1' => {
                                                                 'name' => '__head',
                                                                 'type' => '3076497'
                                                               },
                                                        '2' => {
                                                                 'name' => 'p2',
                                                                 'type' => '3076409'
                                                               }
                                                      },
                                           'ShortName' => '_Tuple_impl<exactreal::Element<exactreal::NumberField>::Implementation*&, void(*)(exactreal::Element<exactreal::NumberField>::Implementation*) const&>',
                                           'TParam' => {
                                                         '0' => {
                                                                  'key' => '_UHead',
                                                                  'type' => '3076497'
                                                                },
                                                         '1' => {
                                                                  'key' => undef,
                                                                  'type' => '3076409'
                                                                }
                                                       }
                                         },
                            '3136963' => {
                                           'Artificial' => 1,
                                           'Class' => '2741122',
                                           'Constructor' => 1,
                                           'Header' => 'tuple',
                                           'InLine' => 1,
                                           'Line' => '216',
                                           'MnglName' => '_ZNSt11_Tuple_implILm0EJPN9exactreal7ElementINS0_11NumberFieldEE14ImplementationEPFvS5_EEEC1IRS5_JRKS7_EvEEOT_DpOT0_',
                                           'Param' => {
                                                        '0' => {
                                                                 'name' => 'this',
                                                                 'type' => '3076539'
                                                               },
                                                        '1' => {
                                                                 'name' => '__head',
                                                                 'type' => '3076497'
                                                               },
                                                        '2' => {
                                                                 'name' => 'p2',
                                                                 'type' => '3076409'
                                                               }
                                                      },
                                           'ShortName' => '_Tuple_impl<exactreal::Element<exactreal::NumberField>::Implementation*&, void(*)(exactreal::Element<exactreal::NumberField>::Implementation*) const&>',
                                           'TParam' => {
                                                         '0' => {
                                                                  'key' => '_UHead',
                                                                  'type' => '3076497'
                                                                },
                                                         '1' => {
                                                                  'key' => undef,
                                                                  'type' => '3076409'
                                                                }
                                                       }
                                         },
                            '3137061' => {
                                           'Artificial' => 1,
                                           'Class' => '2740485',
                                           'Constructor' => 1,
                                           'Header' => 'tuple',
                                           'InLine' => 1,
                                           'Line' => '343',
                                           'MnglName' => '_ZNSt11_Tuple_implILm1EJPFvPN9exactreal7ElementINS0_11NumberFieldEE14ImplementationEEEEC2ERKS7_',
                                           'Param' => {
                                                        '0' => {
                                                                 'name' => 'this',
                                                                 'type' => '3076457'
                                                               },
                                                        '1' => {
                                                                 'name' => '__head',
                                                                 'type' => '3076409'
                                                               }
                                                      },
                                           'ShortName' => '_Tuple_impl'
                                         },
                            '3137062' => {
                                           'Artificial' => 1,
                                           'Class' => '2740485',
                                           'Constructor' => 1,
                                           'Header' => 'tuple',
                                           'InLine' => 1,
                                           'Line' => '343',
                                           'MnglName' => '_ZNSt11_Tuple_implILm1EJPFvPN9exactreal7ElementINS0_11NumberFieldEE14ImplementationEEEEC1ERKS7_',
                                           'Param' => {
                                                        '0' => {
                                                                 'name' => 'this',
                                                                 'type' => '3076457'
                                                               },
                                                        '1' => {
                                                                 'name' => '__head',
                                                                 'type' => '3076409'
                                                               }
                                                      },
                                           'ShortName' => '_Tuple_impl'
                                         },
                            '3137125' => {
                                           'Artificial' => 1,
                                           'Class' => '2740185',
                                           'Constructor' => 1,
                                           'Header' => 'tuple',
                                           'InLine' => 1,
                                           'Line' => '125',
                                           'MnglName' => '_ZNSt10_Head_baseILm1EPFvPN9exactreal7ElementINS0_11NumberFieldEE14ImplementationEELb0EEC2ERKS7_',
                                           'Param' => {
                                                        '0' => {
                                                                 'name' => 'this',
                                                                 'type' => '3076404'
                                                               },
                                                        '1' => {
                                                                 'name' => '__h',
                                                                 'type' => '3076409'
                                                               }
                                                      },
                                           'ShortName' => '_Head_base'
                                         },
                            '3137126' => {
                                           'Artificial' => 1,
                                           'Class' => '2740185',
                                           'Constructor' => 1,
                                           'Header' => 'tuple',
                                           'InLine' => 1,
                                           'Line' => '125',
                                           'MnglName' => '_ZNSt10_Head_baseILm1EPFvPN9exactreal7ElementINS0_11NumberFieldEE14ImplementationEELb0EEC1ERKS7_',
                                           'Param' => {
                                                        '0' => {
                                                                 'name' => 'this',
                                                                 'type' => '3076404'
                                                               },
                                                        '1' => {
                                                                 'name' => '__h',
                                                                 'type' => '3076409'
                                                               }
                                                      },
                                           'ShortName' => '_Head_base'
                                         },
                            '3139823' => {
                                           'Artificial' => 1,
                                           'Class' => '2723491',
                                           'Constructor' => 1,
                                           'Header' => 'tuple',
                                           'InLine' => 1,
                                           'Line' => '968',
                                           'MnglName' => '_ZNSt5tupleIJPN9exactreal7ElementINS0_13RationalFieldEE14ImplementationEPFvS5_EEEC2IRS5_RKS7_Lb1EEEOT_OT0_',
                                           'Param' => {
                                                        '0' => {
                                                                 'name' => 'this',
                                                                 'type' => '3074433'
                                                               },
                                                        '1' => {
                                                                 'name' => '__a1',
                                                                 'type' => '3074362'
                                                               },
                                                        '2' => {
                                                                 'name' => '__a2',
                                                                 'type' => '3074274'
                                                               }
                                                      },
                                           'ShortName' => 'tuple<exactreal::Element<exactreal::RationalField>::Implementation*&, void(*)(exactreal::Element<exactreal::RationalField>::Implementation*) const&>',
                                           'TParam' => {
                                                         '0' => {
                                                                  'key' => '_U1',
                                                                  'type' => '3074362'
                                                                },
                                                         '1' => {
                                                                  'key' => '_U2',
                                                                  'type' => '3074274'
                                                                }
                                                       }
                                         },
                            '3139824' => {
                                           'Artificial' => 1,
                                           'Class' => '2723491',
                                           'Constructor' => 1,
                                           'Header' => 'tuple',
                                           'InLine' => 1,
                                           'Line' => '968',
                                           'MnglName' => '_ZNSt5tupleIJPN9exactreal7ElementINS0_13RationalFieldEE14ImplementationEPFvS5_EEEC1IRS5_RKS7_Lb1EEEOT_OT0_',
                                           'Param' => {
                                                        '0' => {
                                                                 'name' => 'this',
                                                                 'type' => '3074433'
                                                               },
                                                        '1' => {
                                                                 'name' => '__a1',
                                                                 'type' => '3074362'
                                                               },
                                                        '2' => {
                                                                 'name' => '__a2',
                                                                 'type' => '3074274'
                                                               }
                                                      },
                                           'ShortName' => 'tuple<exactreal::Element<exactreal::RationalField>::Implementation*&, void(*)(exactreal::Element<exactreal::RationalField>::Implementation*) const&>',
                                           'TParam' => {
                                                         '0' => {
                                                                  'key' => '_U1',
                                                                  'type' => '3074362'
                                                                },
                                                         '1' => {
                                                                  'key' => '_U2',
                                                                  'type' => '3074274'
                                                                }
                                                       }
                                         },
                            '3139944' => {
                                           'Artificial' => 1,
                                           'Class' => '2722969',
                                           'Constructor' => 1,
                                           'Header' => 'tuple',
                                           'InLine' => 1,
                                           'Line' => '216',
                                           'MnglName' => '_ZNSt11_Tuple_implILm0EJPN9exactreal7ElementINS0_13RationalFieldEE14ImplementationEPFvS5_EEEC2IRS5_JRKS7_EvEEOT_DpOT0_',
                                           'Param' => {
                                                        '0' => {
                                                                 'name' => 'this',
                                                                 'type' => '3074404'
                                                               },
                                                        '1' => {
                                                                 'name' => '__head',
                                                                 'type' => '3074362'
                                                               },
                                                        '2' => {
                                                                 'name' => 'p2',
                                                                 'type' => '3074274'
                                                               }
                                                      },
                                           'ShortName' => '_Tuple_impl<exactreal::Element<exactreal::RationalField>::Implementation*&, void(*)(exactreal::Element<exactreal::RationalField>::Implementation*) const&>',
                                           'TParam' => {
                                                         '0' => {
                                                                  'key' => '_UHead',
                                                                  'type' => '3074362'
                                                                },
                                                         '1' => {
                                                                  'key' => undef,
                                                                  'type' => '3074274'
                                                                }
                                                       }
                                         },
                            '3139945' => {
                                           'Artificial' => 1,
                                           'Class' => '2722969',
                                           'Constructor' => 1,
                                           'Header' => 'tuple',
                                           'InLine' => 1,
                                           'Line' => '216',
                                           'MnglName' => '_ZNSt11_Tuple_implILm0EJPN9exactreal7ElementINS0_13RationalFieldEE14ImplementationEPFvS5_EEEC1IRS5_JRKS7_EvEEOT_DpOT0_',
                                           'Param' => {
                                                        '0' => {
                                                                 'name' => 'this',
                                                                 'type' => '3074404'
                                                               },
                                                        '1' => {
                                                                 'name' => '__head',
                                                                 'type' => '3074362'
                                                               },
                                                        '2' => {
                                                                 'name' => 'p2',
                                                                 'type' => '3074274'
                                                               }
                                                      },
                                           'ShortName' => '_Tuple_impl<exactreal::Element<exactreal::RationalField>::Implementation*&, void(*)(exactreal::Element<exactreal::RationalField>::Implementation*) const&>',
                                           'TParam' => {
                                                         '0' => {
                                                                  'key' => '_UHead',
                                                                  'type' => '3074362'
                                                                },
                                                         '1' => {
                                                                  'key' => undef,
                                                                  'type' => '3074274'
                                                                }
                                                       }
                                         },
                            '3140043' => {
                                           'Artificial' => 1,
                                           'Class' => '2722332',
                                           'Constructor' => 1,
                                           'Header' => 'tuple',
                                           'InLine' => 1,
                                           'Line' => '343',
                                           'MnglName' => '_ZNSt11_Tuple_implILm1EJPFvPN9exactreal7ElementINS0_13RationalFieldEE14ImplementationEEEEC2ERKS7_',
                                           'Param' => {
                                                        '0' => {
                                                                 'name' => 'this',
                                                                 'type' => '3074322'
                                                               },
                                                        '1' => {
                                                                 'name' => '__head',
                                                                 'type' => '3074274'
                                                               }
                                                      },
                                           'ShortName' => '_Tuple_impl'
                                         },
                            '3140044' => {
                                           'Artificial' => 1,
                                           'Class' => '2722332',
                                           'Constructor' => 1,
                                           'Header' => 'tuple',
                                           'InLine' => 1,
                                           'Line' => '343',
                                           'MnglName' => '_ZNSt11_Tuple_implILm1EJPFvPN9exactreal7ElementINS0_13RationalFieldEE14ImplementationEEEEC1ERKS7_',
                                           'Param' => {
                                                        '0' => {
                                                                 'name' => 'this',
                                                                 'type' => '3074322'
                                                               },
                                                        '1' => {
                                                                 'name' => '__head',
                                                                 'type' => '3074274'
                                                               }
                                                      },
                                           'ShortName' => '_Tuple_impl'
                                         },
                            '3140107' => {
                                           'Artificial' => 1,
                                           'Class' => '2722032',
                                           'Constructor' => 1,
                                           'Header' => 'tuple',
                                           'InLine' => 1,
                                           'Line' => '125',
                                           'MnglName' => '_ZNSt10_Head_baseILm1EPFvPN9exactreal7ElementINS0_13RationalFieldEE14ImplementationEELb0EEC2ERKS7_',
                                           'Param' => {
                                                        '0' => {
                                                                 'name' => 'this',
                                                                 'type' => '3074269'
                                                               },
                                                        '1' => {
                                                                 'name' => '__h',
                                                                 'type' => '3074274'
                                                               }
                                                      },
                                           'ShortName' => '_Head_base'
                                         },
                            '3140108' => {
                                           'Artificial' => 1,
                                           'Class' => '2722032',
                                           'Constructor' => 1,
                                           'Header' => 'tuple',
                                           'InLine' => 1,
                                           'Line' => '125',
                                           'MnglName' => '_ZNSt10_Head_baseILm1EPFvPN9exactreal7ElementINS0_13RationalFieldEE14ImplementationEELb0EEC1ERKS7_',
                                           'Param' => {
                                                        '0' => {
                                                                 'name' => 'this',
                                                                 'type' => '3074269'
                                                               },
                                                        '1' => {
                                                                 'name' => '__h',
                                                                 'type' => '3074274'
                                                               }
                                                      },
                                           'ShortName' => '_Head_base'
                                         },
                            '3147265' => {
                                           'Artificial' => 1,
                                           'Class' => '2711033',
                                           'Constructor' => 1,
                                           'Header' => 'tuple',
                                           'InLine' => 1,
                                           'Line' => '968',
                                           'MnglName' => '_ZNSt5tupleIJPN9exactreal7ElementINS0_11IntegerRingEE14ImplementationEPFvS5_EEEC2IRS5_RKS7_Lb1EEEOT_OT0_',
                                           'Param' => {
                                                        '0' => {
                                                                 'name' => 'this',
                                                                 'type' => '3073462'
                                                               },
                                                        '1' => {
                                                                 'name' => '__a1',
                                                                 'type' => '3073391'
                                                               },
                                                        '2' => {
                                                                 'name' => '__a2',
                                                                 'type' => '3073303'
                                                               }
                                                      },
                                           'ShortName' => 'tuple<exactreal::Element<exactreal::IntegerRing>::Implementation*&, void(*)(exactreal::Element<exactreal::IntegerRing>::Implementation*) const&>',
                                           'TParam' => {
                                                         '0' => {
                                                                  'key' => '_U1',
                                                                  'type' => '3073391'
                                                                },
                                                         '1' => {
                                                                  'key' => '_U2',
                                                                  'type' => '3073303'
                                                                }
                                                       }
                                         },
                            '3147266' => {
                                           'Artificial' => 1,
                                           'Class' => '2711033',
                                           'Constructor' => 1,
                                           'Header' => 'tuple',
                                           'InLine' => 1,
                                           'Line' => '968',
                                           'MnglName' => '_ZNSt5tupleIJPN9exactreal7ElementINS0_11IntegerRingEE14ImplementationEPFvS5_EEEC1IRS5_RKS7_Lb1EEEOT_OT0_',
                                           'Param' => {
                                                        '0' => {
                                                                 'name' => 'this',
                                                                 'type' => '3073462'
                                                               },
                                                        '1' => {
                                                                 'name' => '__a1',
                                                                 'type' => '3073391'
                                                               },
                                                        '2' => {
                                                                 'name' => '__a2',
                                                                 'type' => '3073303'
                                                               }
                                                      },
                                           'ShortName' => 'tuple<exactreal::Element<exactreal::IntegerRing>::Implementation*&, void(*)(exactreal::Element<exactreal::IntegerRing>::Implementation*) const&>',
                                           'TParam' => {
                                                         '0' => {
                                                                  'key' => '_U1',
                                                                  'type' => '3073391'
                                                                },
                                                         '1' => {
                                                                  'key' => '_U2',
                                                                  'type' => '3073303'
                                                                }
                                                       }
                                         },
                            '3147386' => {
                                           'Artificial' => 1,
                                           'Class' => '2710511',
                                           'Constructor' => 1,
                                           'Header' => 'tuple',
                                           'InLine' => 1,
                                           'Line' => '216',
                                           'MnglName' => '_ZNSt11_Tuple_implILm0EJPN9exactreal7ElementINS0_11IntegerRingEE14ImplementationEPFvS5_EEEC2IRS5_JRKS7_EvEEOT_DpOT0_',
                                           'Param' => {
                                                        '0' => {
                                                                 'name' => 'this',
                                                                 'type' => '3073433'
                                                               },
                                                        '1' => {
                                                                 'name' => '__head',
                                                                 'type' => '3073391'
                                                               },
                                                        '2' => {
                                                                 'name' => 'p2',
                                                                 'type' => '3073303'
                                                               }
                                                      },
                                           'ShortName' => '_Tuple_impl<exactreal::Element<exactreal::IntegerRing>::Implementation*&, void(*)(exactreal::Element<exactreal::IntegerRing>::Implementation*) const&>',
                                           'TParam' => {
                                                         '0' => {
                                                                  'key' => '_UHead',
                                                                  'type' => '3073391'
                                                                },
                                                         '1' => {
                                                                  'key' => undef,
                                                                  'type' => '3073303'
                                                                }
                                                       }
                                         },
                            '3147387' => {
                                           'Artificial' => 1,
                                           'Class' => '2710511',
                                           'Constructor' => 1,
                                           'Header' => 'tuple',
                                           'InLine' => 1,
                                           'Line' => '216',
                                           'MnglName' => '_ZNSt11_Tuple_implILm0EJPN9exactreal7ElementINS0_11IntegerRingEE14ImplementationEPFvS5_EEEC1IRS5_JRKS7_EvEEOT_DpOT0_',
                                           'Param' => {
                                                        '0' => {
                                                                 'name' => 'this',
                                                                 'type' => '3073433'
                                                               },
                                                        '1' => {
                                                                 'name' => '__head',
                                                                 'type' => '3073391'
                                                               },
                                                        '2' => {
                                                                 'name' => 'p2',
                                                                 'type' => '3073303'
                                                               }
                                                      },
                                           'ShortName' => '_Tuple_impl<exactreal::Element<exactreal::IntegerRing>::Implementation*&, void(*)(exactreal::Element<exactreal::IntegerRing>::Implementation*) const&>',
                                           'TParam' => {
                                                         '0' => {
                                                                  'key' => '_UHead',
                                                                  'type' => '3073391'
                                                                },
                                                         '1' => {
                                                                  'key' => undef,
                                                                  'type' => '3073303'
                                                                }
                                                       }
                                         },
                            '3147485' => {
                                           'Artificial' => 1,
                                           'Class' => '2709874',
                                           'Constructor' => 1,
                                           'Header' => 'tuple',
                                           'InLine' => 1,
                                           'Line' => '343',
                                           'MnglName' => '_ZNSt11_Tuple_implILm1EJPFvPN9exactreal7ElementINS0_11IntegerRingEE14ImplementationEEEEC2ERKS7_',
                                           'Param' => {
                                                        '0' => {
                                                                 'name' => 'this',
                                                                 'type' => '3073351'
                                                               },
                                                        '1' => {
                                                                 'name' => '__head',
                                                                 'type' => '3073303'
                                                               }
                                                      },
                                           'ShortName' => '_Tuple_impl'
                                         },
                            '3147486' => {
                                           'Artificial' => 1,
                                           'Class' => '2709874',
                                           'Constructor' => 1,
                                           'Header' => 'tuple',
                                           'InLine' => 1,
                                           'Line' => '343',
                                           'MnglName' => '_ZNSt11_Tuple_implILm1EJPFvPN9exactreal7ElementINS0_11IntegerRingEE14ImplementationEEEEC1ERKS7_',
                                           'Param' => {
                                                        '0' => {
                                                                 'name' => 'this',
                                                                 'type' => '3073351'
                                                               },
                                                        '1' => {
                                                                 'name' => '__head',
                                                                 'type' => '3073303'
                                                               }
                                                      },
                                           'ShortName' => '_Tuple_impl'
                                         },
                            '3147549' => {
                                           'Artificial' => 1,
                                           'Class' => '2709574',
                                           'Constructor' => 1,
                                           'Header' => 'tuple',
                                           'InLine' => 1,
                                           'Line' => '125',
                                           'MnglName' => '_ZNSt10_Head_baseILm1EPFvPN9exactreal7ElementINS0_11IntegerRingEE14ImplementationEELb0EEC2ERKS7_',
                                           'Param' => {
                                                        '0' => {
                                                                 'name' => 'this',
                                                                 'type' => '3073298'
                                                               },
                                                        '1' => {
                                                                 'name' => '__h',
                                                                 'type' => '3073303'
                                                               }
                                                      },
                                           'ShortName' => '_Head_base'
                                         },
                            '3147550' => {
                                           'Artificial' => 1,
                                           'Class' => '2709574',
                                           'Constructor' => 1,
                                           'Header' => 'tuple',
                                           'InLine' => 1,
                                           'Line' => '125',
                                           'MnglName' => '_ZNSt10_Head_baseILm1EPFvPN9exactreal7ElementINS0_11IntegerRingEE14ImplementationEELb0EEC1ERKS7_',
                                           'Param' => {
                                                        '0' => {
                                                                 'name' => 'this',
                                                                 'type' => '3073298'
                                                               },
                                                        '1' => {
                                                                 'name' => '__h',
                                                                 'type' => '3073303'
                                                               }
                                                      },
                                           'ShortName' => '_Head_base'
                                         },
                            '3186456' => {
                                           'Artificial' => 1,
                                           'Class' => '2739769',
                                           'Constructor' => 1,
                                           'Header' => 'unique_ptr.h',
                                           'InLine' => 1,
                                           'Line' => '150',
                                           'MnglName' => '_ZNSt15__uniq_ptr_implIN9exactreal7ElementINS0_11NumberFieldEE14ImplementationEPFvPS4_EEC2IRKS7_EES5_OT_',
                                           'Param' => {
                                                        '0' => {
                                                                 'name' => 'this',
                                                                 'type' => '3076585'
                                                               },
                                                        '1' => {
                                                                 'name' => '__p',
                                                                 'type' => '2739887'
                                                               },
                                                        '2' => {
                                                                 'name' => '__d',
                                                                 'type' => '3076409'
                                                               }
                                                      },
                                           'ShortName' => '__uniq_ptr_impl<void(*)(exactreal::Element<exactreal::NumberField>::Implementation*) const&>',
                                           'TParam' => {
                                                         '0' => {
                                                                  'key' => '_Del',
                                                                  'type' => '3076409'
                                                                }
                                                       }
                                         },
                            '3186457' => {
                                           'Artificial' => 1,
                                           'Class' => '2739769',
                                           'Constructor' => 1,
                                           'Header' => 'unique_ptr.h',
                                           'InLine' => 1,
                                           'Line' => '150',
                                           'MnglName' => '_ZNSt15__uniq_ptr_implIN9exactreal7ElementINS0_11NumberFieldEE14ImplementationEPFvPS4_EEC1IRKS7_EES5_OT_',
                                           'Param' => {
                                                        '0' => {
                                                                 'name' => 'this',
                                                                 'type' => '3076585'
                                                               },
                                                        '1' => {
                                                                 'name' => '__p',
                                                                 'type' => '2739887'
                                                               },
                                                        '2' => {
                                                                 'name' => '__d',
                                                                 'type' => '3076409'
                                                               }
                                                      },
                                           'ShortName' => '__uniq_ptr_impl<void(*)(exactreal::Element<exactreal::NumberField>::Implementation*) const&>',
                                           'TParam' => {
                                                         '0' => {
                                                                  'key' => '_Del',
                                                                  'type' => '3076409'
                                                                }
                                                       }
                                         },
                            '3187034' => {
                                           'Artificial' => 1,
                                           'Class' => '2914331',
                                           'Constructor' => 1,
                                           'Header' => 'new_allocator.h',
                                           'InLine' => 1,
                                           'Line' => '83',
                                           'MnglName' => '_ZN9__gnu_cxx13new_allocatorIN6eantic15renf_elem_classEEC2ERKS3_',
                                           'Param' => {
                                                        '0' => {
                                                                 'name' => 'this',
                                                                 'type' => '3076909'
                                                               },
                                                        '1' => {
                                                                 'name' => 'p1',
                                                                 'type' => '3076914'
                                                               }
                                                      },
                                           'ShortName' => 'new_allocator'
                                         },
                            '3187035' => {
                                           'Artificial' => 1,
                                           'Class' => '2914331',
                                           'Constructor' => 1,
                                           'Header' => 'new_allocator.h',
                                           'InLine' => 1,
                                           'Line' => '83',
                                           'MnglName' => '_ZN9__gnu_cxx13new_allocatorIN6eantic15renf_elem_classEEC1ERKS3_',
                                           'Param' => {
                                                        '0' => {
                                                                 'name' => 'this',
                                                                 'type' => '3076909'
                                                               },
                                                        '1' => {
                                                                 'name' => 'p1',
                                                                 'type' => '3076914'
                                                               }
                                                      },
                                           'ShortName' => 'new_allocator'
                                         },
                            '3220660' => {
                                           'Artificial' => 1,
                                           'Class' => '2721616',
                                           'Constructor' => 1,
                                           'Header' => 'unique_ptr.h',
                                           'InLine' => 1,
                                           'Line' => '150',
                                           'MnglName' => '_ZNSt15__uniq_ptr_implIN9exactreal7ElementINS0_13RationalFieldEE14ImplementationEPFvPS4_EEC2IRKS7_EES5_OT_',
                                           'Param' => {
                                                        '0' => {
                                                                 'name' => 'this',
                                                                 'type' => '3074450'
                                                               },
                                                        '1' => {
                                                                 'name' => '__p',
                                                                 'type' => '2721734'
                                                               },
                                                        '2' => {
                                                                 'name' => '__d',
                                                                 'type' => '3074274'
                                                               }
                                                      },
                                           'ShortName' => '__uniq_ptr_impl<void(*)(exactreal::Element<exactreal::RationalField>::Implementation*) const&>',
                                           'TParam' => {
                                                         '0' => {
                                                                  'key' => '_Del',
                                                                  'type' => '3074274'
                                                                }
                                                       }
                                         },
                            '3220661' => {
                                           'Artificial' => 1,
                                           'Class' => '2721616',
                                           'Constructor' => 1,
                                           'Header' => 'unique_ptr.h',
                                           'InLine' => 1,
                                           'Line' => '150',
                                           'MnglName' => '_ZNSt15__uniq_ptr_implIN9exactreal7ElementINS0_13RationalFieldEE14ImplementationEPFvPS4_EEC1IRKS7_EES5_OT_',
                                           'Param' => {
                                                        '0' => {
                                                                 'name' => 'this',
                                                                 'type' => '3074450'
                                                               },
                                                        '1' => {
                                                                 'name' => '__p',
                                                                 'type' => '2721734'
                                                               },
                                                        '2' => {
                                                                 'name' => '__d',
                                                                 'type' => '3074274'
                                                               }
                                                      },
                                           'ShortName' => '__uniq_ptr_impl<void(*)(exactreal::Element<exactreal::RationalField>::Implementation*) const&>',
