$VAR1 = {
          'ABI_DUMPER_VERSION' => '1.1',
          'ABI_DUMP_VERSION' => '3.5',
          'Arch' => 'x86_64',
          'Compiler' => 'GNU C++17 9.4.0 -march=nocona -mtune=haswell -g -O2 -O2 -Og -std=gnu++17 -std=c++17 -fvisibility-inlines-hidden -fmessage-length=0 -ftree-vectorize -fstack-protector-strong -fno-plt -ffunction-sections -fPIC',
          'Headers' => {},
          'Language' => 'C++',
          'LibraryName' => 'libexactreal.so.6.0.1',
          'LibraryVersion' => undef,
          'NameSpaces' => {
                            '__gnu_cxx' => 1,
                            '__gnu_cxx::__ops' => 1,
                            '__pstl::execution::v1' => 1,
                            '_hana' => 1,
                            'boost' => 1,
                            'boost::adaptors' => 1,
                            'boost::algorithm' => 1,
                            'boost::algorithm::detail' => 1,
                            'boost::container' => 1,
                            'boost::conversion::detail' => 1,
                            'boost::core' => 1,
                            'boost::detail' => 1,
                            'boost::detail::indirect_traits' => 1,
                            'boost::detail::static_log2_impl' => 1,
                            'boost::exception_detail' => 1,
                            'boost::hana' => 1,
                            'boost::hana::core_detail' => 1,
                            'boost::hana::detail' => 1,
                            'boost::hana::detail::operators' => 1,
                            'boost::hana::detail::variadic' => 1,
                            'boost::hana::ic_detail' => 1,
                            'boost::iterator_range_detail' => 1,
                            'boost::iterators' => 1,
                            'boost::iterators::detail' => 1,
                            'boost::mpl' => 1,
                            'boost::mpl::aux' => 1,
                            'boost::noncopyable_' => 1,
                            'boost::numeric' => 1,
                            'boost::numeric::boundsdetail' => 1,
                            'boost::numeric::convdetail' => 1,
                            'boost::operators_impl' => 1,
                            'boost::operators_impl::operators_detail' => 1,
                            'boost::optional_detail' => 1,
                            'boost::optional_ns' => 1,
                            'boost::random' => 1,
                            'boost::random::detail' => 1,
                            'boost::random::traits' => 1,
                            'boost::range_adl_barrier' => 1,
                            'boost::range_detail' => 1,
                            'boost::type_traits' => 1,
                            'boost::yap' => 1,
                            'boost::yap::detail' => 1,
                            'cereal' => 1,
                            'cereal::base64' => 1,
                            'cereal::detail' => 1,
                            'cereal::traits' => 1,
                            'cereal::traits::detail' => 1,
                            'eantic' => 1,
                            'exactreal' => 1,
                            'exactreal::yap' => 1,
                            'flatsurf' => 1,
                            'flint' => 1,
                            'mpl_' => 1,
                            'rapidjson' => 1,
                            'rapidjson::internal' => 1,
                            'spimpl' => 1,
                            'spimpl::details' => 1,
                            'std' => 1,
                            'std::__cxx11' => 1,
                            'std::__detail' => 1,
                            'std::__exception_ptr' => 1,
                            'std::chrono' => 1,
                            'std::chrono::_V2' => 1,
                            'std::placeholders' => 1,
                            'unique_factory' => 1
                          },
          'Needed' => {
                        'libarb.so.2' => 1,
                        'libc.so.6' => 1,
                        'libeantic.so.1' => 1,
                        'libeanticxx.so.1' => 1,
                        'libgcc_s.so.1' => 1,
                        'libgmpxx.so.4' => 1,
                        'libm.so.6' => 1,
                        'libstdc++.so.6' => 1
                      },
          'Sources' => {},
          'SymbolInfo' => {
                            '2810695' => {
                                           'Class' => '2810682',
                                           'Const' => 1,
                                           'Header' => undef,
                                           'InLine' => 2,
                                           'Line' => '780',
                                           'MnglName' => '_ZNKSt4hashIN9exactreal7ElementINS0_11IntegerRingEEEEclERKS3_',
                                           'Param' => {
                                                        '0' => {
                                                                 'name' => 'this',
                                                                 'type' => '3140819'
                                                               },
                                                        '1' => {
                                                                 'name' => 'x',
                                                                 'type' => '3137325'
                                                               }
                                                      },
                                           'Return' => '18533',
                                           'ShortName' => 'operator()'
                                         },
                            '2810759' => {
                                           'Class' => '2810746',
                                           'Const' => 1,
                                           'Header' => undef,
                                           'InLine' => 2,
                                           'Line' => '780',
                                           'MnglName' => '_ZNKSt4hashIN9exactreal7ElementINS0_13RationalFieldEEEEclERKS3_',
                                           'Param' => {
                                                        '0' => {
                                                                 'name' => 'this',
                                                                 'type' => '3140830'
                                                               },
                                                        '1' => {
                                                                 'name' => 'x',
                                                                 'type' => '3138290'
                                                               }
                                                      },
                                           'Return' => '18533',
                                           'ShortName' => 'operator()'
                                         },
                            '2810823' => {
                                           'Class' => '2810810',
                                           'Const' => 1,
                                           'Header' => undef,
                                           'InLine' => 2,
                                           'Line' => '780',
                                           'MnglName' => '_ZNKSt4hashIN9exactreal7ElementINS0_11NumberFieldEEEEclERKS3_',
                                           'Param' => {
                                                        '0' => {
                                                                 'name' => 'this',
                                                                 'type' => '3140841'
                                                               },
                                                        '1' => {
                                                                 'name' => 'x',
                                                                 'type' => '3140449'
                                                               }
                                                      },
                                           'Return' => '18533',
                                           'ShortName' => 'operator()'
                                         },
                            '3104077' => {
                                           'Class' => '384090',
                                           'Const' => 1,
                                           'Header' => undef,
                                           'InLine' => 2,
                                           'Line' => '215',
                                           'MnglName' => '_ZNK9exactreal3ArbltIxLi0EEESt8optionalIbET_',
                                           'Param' => {
                                                        '0' => {
                                                                 'name' => 'this',
                                                                 'type' => '5431783'
                                                               },
                                                        '1' => {
                                                                 'name' => 'rhs',
                                                                 'type' => '315596'
                                                               }
                                                      },
                                           'Private' => 1,
                                           'Return' => '85845',
                                           'ShortName' => 'operator< <long long>',
                                           'TParam' => {
                                                         '0' => {
                                                                  'key' => 'Integer',
                                                                  'type' => '315588'
                                                                }
                                                       }
                                         },
                            '3104091' => {
                                           'Class' => '384090',
                                           'Const' => 1,
                                           'Header' => undef,
                                           'InLine' => 2,
                                           'Line' => '230',
                                           'MnglName' => '_ZNK9exactreal3ArbneIiLi0EEESt8optionalIbET_',
                                           'Param' => {
                                                        '0' => {
                                                                 'name' => 'this',
                                                                 'type' => '5431783'
                                                               },
                                                        '1' => {
                                                                 'name' => 'rhs',
                                                                 'type' => '313334'
                                                               }
                                                      },
                                           'Private' => 1,
                                           'Return' => '85845',
                                           'ShortName' => 'operator!=<int>',
                                           'TParam' => {
                                                         '0' => {
                                                                  'key' => 'Integer',
                                                                  'type' => '313326'
                                                                }
                                                       }
                                         },
                            '3104458' => {
                                           'Class' => '379312',
                                           'Const' => 1,
                                           'Header' => undef,
                                           'InLine' => 2,
                                           'Line' => '136',
                                           'MnglName' => '_ZNK9exactreal10RealNumbereqIiEENSt9enable_ifIX13is_integral_vIT_EEbE4typeES3_',
                                           'Param' => {
                                                        '0' => {
                                                                 'name' => 'this',
                                                                 'type' => '430918'
                                                               },
                                                        '1' => {
                                                                 'name' => 'rhs',
                                                                 'type' => '313326'
                                                               }
                                                      },
                                           'Return' => '291517',
                                           'ShortName' => 'operator==<int>',
                                           'TParam' => {
                                                         '0' => {
                                                                  'key' => 'Integer',
                                                                  'type' => '313326'
                                                                }
                                                       }
                                         },
                            '3108755' => {
                                           'Class' => '3108453',
                                           'Const' => 1,
                                           'Header' => undef,
                                           'InLine' => 2,
                                           'Line' => '61',
                                           'MnglName' => '_ZNK9exactreal7ElementINS_11IntegerRingEEixEl',
                                           'Param' => {
                                                        '0' => {
                                                                 'name' => 'this',
                                                                 'type' => '3137308'
                                                               },
                                                        '1' => {
                                                                 'name' => 'i',
                                                                 'type' => '3110380'
                                                               }
                                                      },
                                           'Return' => '385634',
                                           'ShortName' => 'operator[]'
                                         },
                            '3108827' => {
                                           'Class' => '3108453',
                                           'Const' => 1,
                                           'Header' => undef,
                                           'InLine' => 2,
                                           'Line' => '68',
                                           'MnglName' => '_ZNK9exactreal7ElementINS_11IntegerRingEE12coefficientsEv',
                                           'Param' => {
                                                        '0' => {
                                                                 'name' => 'this',
                                                                 'type' => '3137308'
                                                               }
                                                      },
                                           'Return' => '2753185',
                                           'ShortName' => 'coefficients'
                                         },
                            '3108858' => {
                                           'Class' => '3108453',
                                           'Const' => 1,
                                           'Header' => undef,
                                           'InLine' => 2,
                                           'Line' => '70',
                                           'MnglName' => '_ZNK9exactreal7ElementINS_11IntegerRingEE20rationalCoefficientsEv',
                                           'Param' => {
                                                        '0' => {
                                                                 'name' => 'this',
                                                                 'type' => '3137308'
                                                               }
                                                      },
                                           'Return' => '2756560',
                                           'ShortName' => 'rationalCoefficients'
                                         },
                            '3108889' => {
                                           'Class' => '3108453',
                                           'Const' => 1,
                                           'Header' => undef,
                                           'InLine' => 2,
                                           'Line' => '76',
                                           'MnglName' => '_ZNK9exactreal7ElementINS_11IntegerRingEE3arbEl',
                                           'Param' => {
                                                        '0' => {
                                                                 'name' => 'this',
                                                                 'type' => '3137308'
                                                               },
                                                        '1' => {
                                                                 'name' => 'accuracy',
                                                                 'type' => '314913'
                                                               }
                                                      },
                                           'Return' => '384090',
                                           'ShortName' => 'arb'
                                         },
                            '3108926' => {
                                           'Class' => '3108453',
                                           'Header' => undef,
                                           'InLine' => 2,
                                           'Line' => '78',
                                           'MnglName' => '_ZN9exactreal7ElementINS_11IntegerRingEEpLERKS2_',
                                           'Param' => {
                                                        '0' => {
                                                                 'name' => 'this',
                                                                 'type' => '3137291'
                                                               },
                                                        '1' => {
                                                                 'name' => 'rhs',
                                                                 'type' => '3137325'
                                                               }
                                                      },
                                           'Return' => '3137319',
                                           'ShortName' => 'operator+='
                                         },
                            '3108962' => {
                                           'Class' => '3108453',
                                           'Header' => undef,
                                           'InLine' => 2,
                                           'Line' => '79',
                                           'MnglName' => '_ZN9exactreal7ElementINS_11IntegerRingEEmIERKS2_',
                                           'Param' => {
                                                        '0' => {
                                                                 'name' => 'this',
                                                                 'type' => '3137291'
                                                               },
                                                        '1' => {
                                                                 'name' => 'rhs',
                                                                 'type' => '3137325'
                                                               }
                                                      },
                                           'Return' => '3137319',
                                           'ShortName' => 'operator-='
                                         },
                            '3108998' => {
                                           'Class' => '3108453',
                                           'Header' => undef,
                                           'InLine' => 2,
                                           'Line' => '80',
                                           'MnglName' => '_ZN9exactreal7ElementINS_11IntegerRingEEmLERKS2_',
                                           'Param' => {
                                                        '0' => {
                                                                 'name' => 'this',
                                                                 'type' => '3137291'
                                                               },
                                                        '1' => {
                                                                 'name' => 'rhs',
                                                                 'type' => '3137325'
                                                               }
                                                      },
                                           'Return' => '3137319',
                                           'ShortName' => 'operator*='
                                         },
                            '3109034' => {
                                           'Class' => '3108453',
                                           'Header' => undef,
                                           'InLine' => 2,
                                           'Line' => '82',
                                           'MnglName' => '_ZN9exactreal7ElementINS_11IntegerRingEEmLERKNS_10RealNumberE',
                                           'Param' => {
                                                        '0' => {
                                                                 'name' => 'this',
                                                                 'type' => '3137291'
                                                               },
                                                        '1' => {
                                                                 'name' => 'rhs',
                                                                 'type' => '438625'
                                                               }
                                                      },
                                           'Return' => '3137319',
                                           'ShortName' => 'operator*='
                                         },
                            '3109070' => {
                                           'Class' => '3108453',
                                           'Const' => 1,
                                           'Header' => undef,
                                           'InLine' => 2,
                                           'Line' => '84',
                                           'MnglName' => '_ZNK9exactreal7ElementINS_11IntegerRingEEngEv',
                                           'Param' => {
                                                        '0' => {
                                                                 'name' => 'this',
                                                                 'type' => '3137308'
                                                               }
                                                      },
                                           'Return' => '3108453',
                                           'ShortName' => 'operator-'
                                         },
                            '3109101' => {
                                           'Class' => '3108453',
                                           'Header' => undef,
                                           'InLine' => 2,
                                           'Line' => '93',
                                           'MnglName' => '_ZN9exactreal7ElementINS_11IntegerRingEEmLERK10__gmp_exprIA1_12__mpz_structS5_E',
                                           'Param' => {
                                                        '0' => {
                                                                 'name' => 'this',
                                                                 'type' => '3137291'
                                                               },
                                                        '1' => {
                                                                 'name' => 'rhs',
                                                                 'type' => '338773'
                                                               }
                                                      },
                                           'Return' => '3137319',
                                           'ShortName' => 'operator*='
                                         },
                            '3109137' => {
                                           'Class' => '3108453',
                                           'Header' => undef,
                                           'InLine' => 2,
                                           'Line' => '94',
                                           'MnglName' => '_ZN9exactreal7ElementINS_11IntegerRingEEmLERK10__gmp_exprIA1_12__mpq_structS5_E',
                                           'Param' => {
                                                        '0' => {
                                                                 'name' => 'this',
                                                                 'type' => '3137291'
                                                               },
                                                        '1' => {
                                                                 'name' => 'rhs',
                                                                 'type' => '387689'
                                                               }
                                                      },
                                           'Return' => '3137319',
                                           'ShortName' => 'operator*='
                                         },
                            '3109173' => {
                                           'Class' => '3108453',
                                           'Header' => undef,
                                           'InLine' => 2,
                                           'Line' => '100',
                                           'MnglName' => '_ZN9exactreal7ElementINS_11IntegerRingEEdVERK10__gmp_exprIA1_12__mpz_structS5_E',
                                           'Param' => {
                                                        '0' => {
                                                                 'name' => 'this',
                                                                 'type' => '3137291'
                                                               },
                                                        '1' => {
                                                                 'name' => 'rhs',
                                                                 'type' => '338773'
                                                               }
                                                      },
                                           'Return' => '3137319',
                                           'ShortName' => 'operator/='
                                         },
                            '3109209' => {
                                           'Class' => '3108453',
                                           'Header' => undef,
                                           'InLine' => 2,
                                           'Line' => '101',
                                           'MnglName' => '_ZN9exactreal7ElementINS_11IntegerRingEEdVERK10__gmp_exprIA1_12__mpq_structS5_E',
                                           'Param' => {
                                                        '0' => {
                                                                 'name' => 'this',
                                                                 'type' => '3137291'
                                                               },
                                                        '1' => {
                                                                 'name' => 'rhs',
                                                                 'type' => '387689'
                                                               }
                                                      },
                                           'Return' => '3137319',
                                           'ShortName' => 'operator/='
                                         },
                            '3109245' => {
                                           'Class' => '3108453',
                                           'Const' => 1,
                                           'Header' => undef,
                                           'InLine' => 2,
                                           'Line' => '103',
                                           'MnglName' => '_ZNK9exactreal7ElementINS_11IntegerRingEE7truedivERKS2_',
                                           'Param' => {
                                                        '0' => {
                                                                 'name' => 'this',
                                                                 'type' => '3137308'
                                                               },
                                                        '1' => {
                                                                 'name' => 'rhs',
                                                                 'type' => '3137325'
                                                               }
                                                      },
                                           'Return' => '2773294',
                                           'ShortName' => 'truediv'
                                         },
                            '3109281' => {
                                           'Class' => '3108453',
                                           'Const' => 1,
                                           'Header' => undef,
                                           'InLine' => 2,
                                           'Line' => '105',
                                           'MnglName' => '_ZNK9exactreal7ElementINS_11IntegerRingEE8floordivERKS2_',
                                           'Param' => {
                                                        '0' => {
                                                                 'name' => 'this',
                                                                 'type' => '3137308'
                                                               },
                                                        '1' => {
                                                                 'name' => 'rhs',
                                                                 'type' => '3137325'
                                                               }
                                                      },
                                           'Return' => '334954',
                                           'ShortName' => 'floordiv'
                                         },
                            '3109317' => {
                                           'Class' => '3108453',
                                           'Const' => 1,
                                           'Header' => undef,
                                           'InLine' => 2,
                                           'Line' => '108',
                                           'MnglName' => '_ZNK9exactreal7ElementINS_11IntegerRingEE4unitEv',
                                           'Param' => {
                                                        '0' => {
                                                                 'name' => 'this',
                                                                 'type' => '3137308'
                                                               }
                                                      },
                                           'Return' => '316089',
                                           'ShortName' => 'unit'
                                         },
                            '3109348' => {
                                           'Class' => '3108453',
                                           'Const' => 1,
                                           'Header' => undef,
                                           'InLine' => 2,
                                           'Line' => '110',
                                           'MnglName' => '_ZNK9exactreal7ElementINS_11IntegerRingEE5floorEv',
                                           'Param' => {
                                                        '0' => {
                                                                 'name' => 'this',
                                                                 'type' => '3137308'
                                                               }
                                                      },
                                           'Return' => '334954',
                                           'ShortName' => 'floor'
                                         },
                            '3109379' => {
                                           'Class' => '3108453',
                                           'Const' => 1,
                                           'Header' => undef,
                                           'InLine' => 2,
                                           'Line' => '111',
                                           'MnglName' => '_ZNK9exactreal7ElementINS_11IntegerRingEE4ceilEv',
                                           'Param' => {
                                                        '0' => {
                                                                 'name' => 'this',
                                                                 'type' => '3137308'
                                                               }
                                                      },
                                           'Return' => '334954',
                                           'ShortName' => 'ceil'
                                         },
                            '3109410' => {
                                           'Class' => '3108453',
                                           'Const' => 1,
                                           'Header' => undef,
                                           'InLine' => 2,
                                           'Line' => '113',
                                           'MnglName' => '_ZNK9exactreal7ElementINS_11IntegerRingEEeqERKS2_',
                                           'Param' => {
                                                        '0' => {
                                                                 'name' => 'this',
                                                                 'type' => '3137308'
                                                               },
                                                        '1' => {
                                                                 'name' => 'rhs',
                                                                 'type' => '3137325'
                                                               }
                                                      },
                                           'Return' => '316089',
                                           'ShortName' => 'operator=='
                                         },
                            '3109446' => {
                                           'Class' => '3108453',
                                           'Const' => 1,
                                           'Header' => undef,
                                           'InLine' => 2,
                                           'Line' => '114',
                                           'MnglName' => '_ZNK9exactreal7ElementINS_11IntegerRingEEltERKS2_',
                                           'Param' => {
                                                        '0' => {
                                                                 'name' => 'this',
                                                                 'type' => '3137308'
                                                               },
                                                        '1' => {
                                                                 'name' => 'rhs',
                                                                 'type' => '3137325'
                                                               }
                                                      },
                                           'Return' => '316089',
                                           'ShortName' => 'operator<'
                                         },
                            '3109482' => {
                                           'Class' => '3108453',
                                           'Const' => 1,
                                           'Header' => undef,
                                           'InLine' => 2,
                                           'Line' => '116',
                                           'MnglName' => '_ZNK9exactreal7ElementINS_11IntegerRingEEeqERKNS_10RealNumberE',
                                           'Param' => {
                                                        '0' => {
                                                                 'name' => 'this',
                                                                 'type' => '3137308'
                                                               },
                                                        '1' => {
                                                                 'name' => 'rhs',
                                                                 'type' => '438625'
                                                               }
                                                      },
                                           'Return' => '316089',
                                           'ShortName' => 'operator=='
                                         },
                            '3109518' => {
                                           'Class' => '3108453',
                                           'Const' => 1,
                                           'Header' => undef,
                                           'InLine' => 2,
                                           'Line' => '117',
                                           'MnglName' => '_ZNK9exactreal7ElementINS_11IntegerRingEEltERKNS_10RealNumberE',
                                           'Param' => {
                                                        '0' => {
                                                                 'name' => 'this',
                                                                 'type' => '3137308'
                                                               },
                                                        '1' => {
                                                                 'name' => 'rhs',
                                                                 'type' => '438625'
                                                               }
                                                      },
                                           'Return' => '316089',
                                           'ShortName' => 'operator<'
                                         },
                            '3109554' => {
                                           'Class' => '3108453',
                                           'Const' => 1,
                                           'Header' => undef,
                                           'InLine' => 2,
                                           'Line' => '118',
                                           'MnglName' => '_ZNK9exactreal7ElementINS_11IntegerRingEEgtERKNS_10RealNumberE',
                                           'Param' => {
                                                        '0' => {
                                                                 'name' => 'this',
                                                                 'type' => '3137308'
                                                               },
                                                        '1' => {
                                                                 'name' => 'rhs',
                                                                 'type' => '438625'
                                                               }
                                                      },
                                           'Return' => '316089',
                                           'ShortName' => 'operator>'
                                         },
                            '3109590' => {
                                           'Class' => '3108453',
                                           'Const' => 1,
                                           'Header' => undef,
                                           'InLine' => 2,
                                           'Line' => '120',
                                           'MnglName' => '_ZNK9exactreal7ElementINS_11IntegerRingEEeqERK10__gmp_exprIA1_12__mpq_structS5_E',
                                           'Param' => {
                                                        '0' => {
                                                                 'name' => 'this',
                                                                 'type' => '3137308'
                                                               },
                                                        '1' => {
                                                                 'name' => 'rhs',
                                                                 'type' => '387689'
                                                               }
                                                      },
                                           'Return' => '316089',
                                           'ShortName' => 'operator=='
                                         },
                            '3109626' => {
                                           'Class' => '3108453',
                                           'Const' => 1,
                                           'Header' => undef,
                                           'InLine' => 2,
                                           'Line' => '121',
                                           'MnglName' => '_ZNK9exactreal7ElementINS_11IntegerRingEEltERK10__gmp_exprIA1_12__mpq_structS5_E',
                                           'Param' => {
                                                        '0' => {
                                                                 'name' => 'this',
                                                                 'type' => '3137308'
                                                               },
                                                        '1' => {
                                                                 'name' => 'rhs',
                                                                 'type' => '387689'
                                                               }
                                                      },
                                           'Return' => '316089',
                                           'ShortName' => 'operator<'
                                         },
                            '3109662' => {
                                           'Class' => '3108453',
                                           'Const' => 1,
                                           'Header' => undef,
                                           'InLine' => 2,
                                           'Line' => '122',
                                           'MnglName' => '_ZNK9exactreal7ElementINS_11IntegerRingEEgtERK10__gmp_exprIA1_12__mpq_structS5_E',
                                           'Param' => {
                                                        '0' => {
                                                                 'name' => 'this',
                                                                 'type' => '3137308'
                                                               },
                                                        '1' => {
                                                                 'name' => 'rhs',
                                                                 'type' => '387689'
                                                               }
                                                      },
                                           'Return' => '316089',
                                           'ShortName' => 'operator>'
                                         },
                            '3109698' => {
                                           'Class' => '3108453',
                                           'Const' => 1,
                                           'Header' => undef,
                                           'InLine' => 2,
                                           'Line' => '124',
                                           'MnglName' => '_ZNK9exactreal7ElementINS_11IntegerRingEEeqERK10__gmp_exprIA1_12__mpz_structS5_E',
                                           'Param' => {
                                                        '0' => {
                                                                 'name' => 'this',
                                                                 'type' => '3137308'
                                                               },
                                                        '1' => {
                                                                 'name' => 'rhs',
                                                                 'type' => '338773'
                                                               }
                                                      },
                                           'Return' => '316089',
                                           'ShortName' => 'operator=='
                                         },
                            '3109734' => {
                                           'Class' => '3108453',
                                           'Const' => 1,
                                           'Header' => undef,
                                           'InLine' => 2,
                                           'Line' => '125',
                                           'MnglName' => '_ZNK9exactreal7ElementINS_11IntegerRingEEltERK10__gmp_exprIA1_12__mpz_structS5_E',
                                           'Param' => {
                                                        '0' => {
                                                                 'name' => 'this',
                                                                 'type' => '3137308'
                                                               },
                                                        '1' => {
                                                                 'name' => 'rhs',
                                                                 'type' => '338773'
                                                               }
                                                      },
                                           'Return' => '316089',
                                           'ShortName' => 'operator<'
                                         },
                            '3109770' => {
                                           'Class' => '3108453',
                                           'Const' => 1,
                                           'Header' => undef,
                                           'InLine' => 2,
                                           'Line' => '126',
                                           'MnglName' => '_ZNK9exactreal7ElementINS_11IntegerRingEEgtERK10__gmp_exprIA1_12__mpz_structS5_E',
                                           'Param' => {
                                                        '0' => {
                                                                 'name' => 'this',
                                                                 'type' => '3137308'
                                                               },
                                                        '1' => {
                                                                 'name' => 'rhs',
                                                                 'type' => '338773'
                                                               }
                                                      },
                                           'Return' => '316089',
                                           'ShortName' => 'operator>'
                                         },
                            '3109806' => {
                                           'Class' => '3108453',
                                           'Const' => 1,
                                           'Header' => undef,
                                           'InLine' => 2,
                                           'Line' => '128',
                                           'MnglName' => '_ZNK9exactreal7ElementINS_11IntegerRingEEeqEx',
                                           'Param' => {
                                                        '0' => {
                                                                 'name' => 'this',
                                                                 'type' => '3137308'
                                                               },
                                                        '1' => {
                                                                 'name' => 'rhs',
                                                                 'type' => '315588'
                                                               }
                                                      },
                                           'Return' => '316089',
                                           'ShortName' => 'operator=='
                                         },
                            '3109842' => {
                                           'Class' => '3108453',
                                           'Const' => 1,
                                           'Header' => undef,
                                           'InLine' => 2,
                                           'Line' => '129',
                                           'MnglName' => '_ZNK9exactreal7ElementINS_11IntegerRingEEltEx',
                                           'Param' => {
                                                        '0' => {
                                                                 'name' => 'this',
                                                                 'type' => '3137308'
                                                               },
                                                        '1' => {
                                                                 'name' => 'rhs',
                                                                 'type' => '315588'
                                                               }
                                                      },
                                           'Return' => '316089',
                                           'ShortName' => 'operator<'
                                         },
                            '3109878' => {
                                           'Class' => '3108453',
                                           'Const' => 1,
                                           'Header' => undef,
                                           'InLine' => 2,
                                           'Line' => '130',
                                           'MnglName' => '_ZNK9exactreal7ElementINS_11IntegerRingEEgtEx',
                                           'Param' => {
                                                        '0' => {
                                                                 'name' => 'this',
                                                                 'type' => '3137308'
                                                               },
                                                        '1' => {
                                                                 'name' => 'rhs',
                                                                 'type' => '315588'
                                                               }
                                                      },
                                           'Return' => '316089',
                                           'ShortName' => 'operator>'
                                         },
                            '3109914' => {
                                           'Class' => '3108453',
                                           'Const' => 1,
                                           'Header' => undef,
                                           'InLine' => 2,
                                           'Line' => '132',
                                           'MnglName' => '_ZNK9exactreal7ElementINS_11IntegerRingEEcvbEv',
                                           'Param' => {
                                                        '0' => {
                                                                 'name' => 'this',
                                                                 'type' => '3137308'
                                                               }
                                                      },
                                           'Return' => '316089',
                                           'ShortName' => 'operator bool'
                                         },
                            '3109946' => {
                                           'Class' => '3108453',
                                           'Const' => 1,
                                           'Header' => undef,
                                           'InLine' => 2,
                                           'Line' => '134',
                                           'MnglName' => '_ZNK9exactreal7ElementINS_11IntegerRingEEcvdEv',
                                           'Param' => {
                                                        '0' => {
                                                                 'name' => 'this',
                                                                 'type' => '3137308'
                                                               }
                                                      },
                                           'Return' => '314792',
                                           'ShortName' => 'operator double'
                                         },
                            '3109978' => {
                                           'Class' => '3108453',
                                           'Const' => 1,
                                           'Header' => undef,
                                           'InLine' => 2,
                                           'Line' => '136',
                                           'MnglName' => '_ZNK9exactreal7ElementINS_11IntegerRingEEcvSt8optionalI10__gmp_exprIA1_12__mpz_structS6_EEEv',
                                           'Param' => {
                                                        '0' => {
                                                                 'name' => 'this',
                                                                 'type' => '3137308'
                                                               }
                                                      },
                                           'Return' => '2773972',
                                           'ShortName' => 'operator std::optional<__gmp_expr<__mpz_struct[1], __mpz_struct[1]> >',
                                           'TParam' => {
                                                         '0' => {
                                                                  'type' => 327165
                                                                }
                                                       }
                                         },
                            '3110010' => {
                                           'Class' => '3108453',
                                           'Const' => 1,
                                           'Header' => undef,
                                           'InLine' => 2,
                                           'Line' => '137',
                                           'MnglName' => '_ZNK9exactreal7ElementINS_11IntegerRingEEcvSt8optionalI10__gmp_exprIA1_12__mpq_structS6_EEEv',
                                           'Param' => {
                                                        '0' => {
                                                                 'name' => 'this',
                                                                 'type' => '3137308'
                                                               }
                                                      },
                                           'Return' => '258366',
                                           'ShortName' => 'operator std::optional<__gmp_expr<__mpq_struct[1], __mpq_struct[1]> >',
                                           'TParam' => {
                                                         '0' => {
                                                                  'type' => 334972
                                                                }
                                                       }
                                         },
                            '3110042' => {
                                           'Class' => '3108453',
                                           'Const' => 1,
                                           'Header' => undef,
                                           'InLine' => 2,
                                           'Line' => '139',
                                           'MnglName' => '_ZNK9exactreal7ElementINS_11IntegerRingEE6moduleEv',
                                           'Param' => {
                                                        '0' => {
                                                                 'name' => 'this',
                                                                 'type' => '3137308'
                                                               }
                                                      },
                                           'Reg' => {
                                                      '0' => 'rsi'
                                                    },
                                           'Return' => '2773274',
                                           'ShortName' => 'module'
                                         },
                            '3110073' => {
                                           'Class' => '3108453',
                                           'Header' => undef,
                                           'InLine' => 2,
                                           'Line' => '143',
                                           'MnglName' => '_ZN9exactreal7ElementINS_11IntegerRingEE7promoteERKSt10shared_ptrIKNS_6ModuleIS1_EEE',
                                           'Param' => {
                                                        '0' => {
                                                                 'name' => 'this',
                                                                 'type' => '3137291'
                                                               },
                                                        '1' => {
                                                                 'name' => 'parent',
                                                                 'type' => '3137296'
                                                               }
                                                      },
                                           'Return' => '3137319',
                                           'ShortName' => 'promote'
                                         },
                            '3110109' => {
                                           'Class' => '3108453',
                                           'Header' => undef,
                                           'InLine' => 2,
                                           'Line' => '150',
                                           'MnglName' => '_ZN9exactreal7ElementINS_11IntegerRingEE8simplifyEv',
                                           'Param' => {
                                                        '0' => {
                                                                 'name' => 'this',
                                                                 'type' => '3137291'
                                                               }
                                                      },
                                           'Return' => '3137319',
                                           'ShortName' => 'simplify'
                                         },
                            '3110308' => {
                                           'Class' => '3108453',
                                           'Header' => undef,
                                           'InLine' => 2,
                                           'Line' => '264',
                                           'MnglName' => '_ZN9exactreal7ElementINS_11IntegerRingEEmLIi10__gmp_exprIA1_12__mpz_struct17__gmp_binary_exprIS4_IS6_S6_El23__gmp_binary_multipliesEEEERS2_RKT_',
                                           'Param' => {
                                                        '0' => {
                                                                 'name' => 'this',
                                                                 'type' => '3137291'
                                                               },
                                                        '1' => {
                                                                 'name' => 'rhs',
                                                                 'type' => '324644'
                                                               }
                                                      },
                                           'Return' => '3137319',
                                           'ShortName' => 'operator*=<int>',
                                           'TParam' => {
                                                         '0' => {
                                                                  'key' => 'T',
                                                                  'type' => '313326'
                                                                }
                                                       }
                                         },
                            '3110418' => {
                                           'Class' => '3110385',
                                           'Header' => undef,
                                           'InLine' => 2,
                                           'Line' => '102',
                                           'MnglName' => '_ZN9exactreal6ModuleINS_11IntegerRingEE4makeERKSt6vectorISt10shared_ptrIKNS_10RealNumberEESaIS7_EE',
                                           'Param' => {
                                                        '0' => {
                                                                 'name' => 'basis',
                                                                 'type' => '3137828'
                                                               }
                                                      },
                                           'Return' => '2772976',
                                           'ShortName' => 'make',
                                           'Static' => 1
                                         },
                            '3110467' => {
                                           'Class' => '3110385',
                                           'Header' => undef,
                                           'InLine' => 2,
                                           'Line' => '107',
                                           'MnglName' => '_ZN9exactreal6ModuleINS_11IntegerRingEE4makeERKSt6vectorISt10shared_ptrIKNS_10RealNumberEESaIS7_EERKS1_',
                                           'Param' => {
                                                        '0' => {
                                                                 'name' => 'basis_',
                                                                 'type' => '3137828'
                                                               },
                                                        '1' => {
                                                                 'name' => 'ring',
                                                                 'type' => '430693'
                                                               }
                                                      },
                                           'Return' => '2772976',
                                           'ShortName' => 'make',
                                           'Static' => 1
                                         },
                            '3110501' => {
                                           'Class' => '3110385',
                                           'Const' => 1,
                                           'Header' => undef,
                                           'InLine' => 2,
                                           'Line' => '126',
                                           'MnglName' => '_ZNK9exactreal6ModuleINS_11IntegerRingEE4ringEv',
                                           'Param' => {
                                                        '0' => {
                                                                 'name' => 'this',
                                                                 'type' => '4681688'
                                                               }
                                                      },
                                           'Reg' => {
                                                      '0' => 'rdi'
                                                    },
                                           'Return' => '430693',
                                           'ShortName' => 'ring'
                                         },
                            '3110533' => {
                                           'Class' => '3110385',
                                           'Const' => 1,
                                           'Header' => undef,
                                           'InLine' => 2,
                                           'Line' => '116',
                                           'MnglName' => '_ZNK9exactreal6ModuleINS_11IntegerRingEE4rankEv',
                                           'Param' => {
                                                        '0' => {
                                                                 'name' => 'this',
                                                                 'type' => '4681688'
                                                               }
                                                      },
                                           'Reg' => {
                                                      '0' => 'rdi'
                                                    },
                                           'Return' => '3110367',
                                           'ShortName' => 'rank'
                                         },
                            '3110565' => {
                                           'Class' => '3110385',
                                           'Const' => 1,
                                           'Header' => undef,
                                           'InLine' => 2,
                                           'Line' => '170',
                                           'MnglName' => '_ZNK9exactreal6ModuleINS_11IntegerRingEE9submoduleERKS2_',
                                           'Param' => {
                                                        '0' => {
                                                                 'name' => 'this',
                                                                 'type' => '4681688'
                                                               },
                                                        '1' => {
                                                                 'name' => 'supermodule',
                                                                 'type' => '3137834'
                                                               }
                                                      },
                                           'Return' => '316089',
                                           'ShortName' => 'submodule'
                                         },
                            '3110602' => {
                                           'Class' => '3110385',
                                           'Const' => 1,
                                           'Header' => undef,
                                           'InLine' => 2,
                                           'Line' => '121',
                                           'MnglName' => '_ZNK9exactreal6ModuleINS_11IntegerRingEE5basisEv',
                                           'Param' => {
                                                        '0' => {
                                                                 'name' => 'this',
                                                                 'type' => '4681688'
                                                               }
                                                      },
                                           'Reg' => {
                                                      '0' => 'rdi'
                                                    },
                                           'Return' => '3139264',
                                           'ShortName' => 'basis'
                                         },
                            '3110634' => {
                                           'Class' => '3110385',
                                           'Const' => 1,
                                           'Header' => undef,
                                           'InLine' => 2,
                                           'Line' => '181',
                                           'MnglName' => '_ZNK9exactreal6ModuleINS_11IntegerRingEE3genEl',
                                           'Param' => {
                                                        '0' => {
                                                                 'name' => 'this',
                                                                 'type' => '4681688'
                                                               },
                                                        '1' => {
                                                                 'name' => 'j',
                                                                 'type' => '3110367'
                                                               }
                                                      },
                                           'Return' => '3108453',
                                           'ShortName' => 'gen'
                                         },
                            '3110672' => {
                                           'Class' => '3110385',
                                           'Const' => 1,
                                           'Header' => undef,
                                           'InLine' => 2,
                                           'Line' => '188',
                                           'MnglName' => '_ZNK9exactreal6ModuleINS_11IntegerRingEE4zeroEv',
                                           'Param' => {
                                                        '0' => {
                                                                 'name' => 'this',
                                                                 'type' => '4681688'
                                                               }
                                                      },
                                           'Return' => '3108453',
                                           'ShortName' => 'zero'
                                         },
                            '3110704' => {
                                           'Class' => '3110385',
                                           'Const' => 1,
                                           'Header' => undef,
                                           'InLine' => 2,
                                           'Line' => '131',
                                           'MnglName' => '_ZNK9exactreal6ModuleINS_11IntegerRingEEeqERKS2_',
                                           'Param' => {
                                                        '0' => {
                                                                 'name' => 'this',
                                                                 'type' => '4681688'
                                                               },
                                                        '1' => {
                                                                 'name' => 'rhs',
                                                                 'type' => '3137834'
                                                               }
                                                      },
                                           'Reg' => {
                                                      '0' => 'rdi',
                                                      '1' => 'rsi'
                                                    },
                                           'Return' => '316089',
                                           'ShortName' => 'operator=='
                                         },
                            '3110741' => {
                                           'Class' => '3110385',
                                           'Header' => undef,
                                           'InLine' => 2,
                                           'Line' => '137',
                                           'MnglName' => '_ZN9exactreal6ModuleINS_11IntegerRingEE4spanERKSt10shared_ptrIKS2_ES7_',
                                           'Param' => {
                                                        '0' => {
                                                                 'name' => 'm',
                                                                 'type' => '3137296'
                                                               },
                                                        '1' => {
                                                                 'name' => 'n',
                                                                 'type' => '3137296'
                                                               }
                                                      },
                                           'Return' => '2772976',
                                           'ShortName' => 'span',
                                           'Static' => 1
                                         },
                            '3111140' => {
                                           'Class' => '3110838',
                                           'Const' => 1,
                                           'Header' => undef,
                                           'InLine' => 2,
                                           'Line' => '61',
                                           'MnglName' => '_ZNK9exactreal7ElementINS_13RationalFieldEEixEl',
                                           'Param' => {
                                                        '0' => {
                                                                 'name' => 'this',
                                                                 'type' => '3138279'
                                                               },
                                                        '1' => {
                                                                 'name' => 'i',
                                                                 'type' => '3110380'
                                                               }
                                                      },
                                           'Return' => '385969',
                                           'ShortName' => 'operator[]'
                                         },
                            '3111212' => {
                                           'Class' => '3110838',
                                           'Const' => 1,
                                           'Header' => undef,
                                           'InLine' => 2,
                                           'Line' => '68',
                                           'MnglName' => '_ZNK9exactreal7ElementINS_13RationalFieldEE12coefficientsEv',
                                           'Param' => {
                                                        '0' => {
                                                                 'name' => 'this',
                                                                 'type' => '3138279'
                                                               }
                                                      },
                                           'Return' => '2756560',
                                           'ShortName' => 'coefficients'
                                         },
                            '3111243' => {
                                           'Class' => '3110838',
                                           'Const' => 1,
                                           'Header' => undef,
                                           'InLine' => 2,
                                           'Line' => '70',
                                           'MnglName' => '_ZNK9exactreal7ElementINS_13RationalFieldEE20rationalCoefficientsEv',
                                           'Param' => {
                                                        '0' => {
                                                                 'name' => 'this',
                                                                 'type' => '3138279'
                                                               }
                                                      },
                                           'Return' => '2756560',
                                           'ShortName' => 'rationalCoefficients'
                                         },
                            '3111274' => {
                                           'Class' => '3110838',
                                           'Const' => 1,
                                           'Header' => undef,
                                           'InLine' => 2,
                                           'Line' => '76',
                                           'MnglName' => '_ZNK9exactreal7ElementINS_13RationalFieldEE3arbEl',
                                           'Param' => {
                                                        '0' => {
                                                                 'name' => 'this',
                                                                 'type' => '3138279'
                                                               },
                                                        '1' => {
                                                                 'name' => 'accuracy',
                                                                 'type' => '314913'
                                                               }
                                                      },
                                           'Return' => '384090',
                                           'ShortName' => 'arb'
                                         },
                            '3111311' => {
                                           'Class' => '3110838',
                                           'Header' => undef,
                                           'InLine' => 2,
                                           'Line' => '78',
                                           'MnglName' => '_ZN9exactreal7ElementINS_13RationalFieldEEpLERKS2_',
                                           'Param' => {
                                                        '0' => {
                                                                 'name' => 'this',
                                                                 'type' => '3138262'
                                                               },
                                                        '1' => {
                                                                 'name' => 'rhs',
                                                                 'type' => '3138290'
                                                               }
                                                      },
                                           'Return' => '3138284',
                                           'ShortName' => 'operator+='
                                         },
                            '3111347' => {
                                           'Class' => '3110838',
                                           'Header' => undef,
                                           'InLine' => 2,
                                           'Line' => '79',
                                           'MnglName' => '_ZN9exactreal7ElementINS_13RationalFieldEEmIERKS2_',
                                           'Param' => {
                                                        '0' => {
                                                                 'name' => 'this',
                                                                 'type' => '3138262'
                                                               },
                                                        '1' => {
                                                                 'name' => 'rhs',
                                                                 'type' => '3138290'
                                                               }
                                                      },
                                           'Return' => '3138284',
                                           'ShortName' => 'operator-='
                                         },
                            '3111383' => {
                                           'Class' => '3110838',
                                           'Header' => undef,
                                           'InLine' => 2,
                                           'Line' => '80',
                                           'MnglName' => '_ZN9exactreal7ElementINS_13RationalFieldEEmLERKS2_',
                                           'Param' => {
                                                        '0' => {
                                                                 'name' => 'this',
                                                                 'type' => '3138262'
                                                               },
                                                        '1' => {
                                                                 'name' => 'rhs',
                                                                 'type' => '3138290'
                                                               }
                                                      },
                                           'Return' => '3138284',
                                           'ShortName' => 'operator*='
                                         },
                            '3111419' => {
                                           'Class' => '3110838',
                                           'Header' => undef,
                                           'InLine' => 2,
                                           'Line' => '82',
                                           'MnglName' => '_ZN9exactreal7ElementINS_13RationalFieldEEmLERKNS_10RealNumberE',
                                           'Param' => {
                                                        '0' => {
                                                                 'name' => 'this',
                                                                 'type' => '3138262'
                                                               },
                                                        '1' => {
                                                                 'name' => 'rhs',
                                                                 'type' => '438625'
                                                               }
                                                      },
                                           'Return' => '3138284',
                                           'ShortName' => 'operator*='
                                         },
                            '3111455' => {
                                           'Class' => '3110838',
                                           'Const' => 1,
                                           'Header' => undef,
                                           'InLine' => 2,
                                           'Line' => '84',
                                           'MnglName' => '_ZNK9exactreal7ElementINS_13RationalFieldEEngEv',
                                           'Param' => {
                                                        '0' => {
                                                                 'name' => 'this',
                                                                 'type' => '3138279'
                                                               }
                                                      },
                                           'Return' => '3110838',
                                           'ShortName' => 'operator-'
                                         },
                            '3111486' => {
                                           'Class' => '3110838',
                                           'Header' => undef,
                                           'InLine' => 2,
                                           'Line' => '93',
                                           'MnglName' => '_ZN9exactreal7ElementINS_13RationalFieldEEmLERK10__gmp_exprIA1_12__mpz_structS5_E',
                                           'Param' => {
                                                        '0' => {
                                                                 'name' => 'this',
                                                                 'type' => '3138262'
                                                               },
                                                        '1' => {
                                                                 'name' => 'rhs',
                                                                 'type' => '338773'
                                                               }
                                                      },
                                           'Return' => '3138284',
                                           'ShortName' => 'operator*='
                                         },
                            '3111522' => {
                                           'Class' => '3110838',
                                           'Header' => undef,
                                           'InLine' => 2,
                                           'Line' => '94',
                                           'MnglName' => '_ZN9exactreal7ElementINS_13RationalFieldEEmLERK10__gmp_exprIA1_12__mpq_structS5_E',
                                           'Param' => {
                                                        '0' => {
                                                                 'name' => 'this',
                                                                 'type' => '3138262'
                                                               },
                                                        '1' => {
                                                                 'name' => 'rhs',
                                                                 'type' => '387689'
                                                               }
                                                      },
                                           'Return' => '3138284',
                                           'ShortName' => 'operator*='
                                         },
                            '3111558' => {
                                           'Class' => '3110838',
                                           'Header' => undef,
                                           'InLine' => 2,
                                           'Line' => '100',
                                           'MnglName' => '_ZN9exactreal7ElementINS_13RationalFieldEEdVERK10__gmp_exprIA1_12__mpz_structS5_E',
                                           'Param' => {
                                                        '0' => {
                                                                 'name' => 'this',
                                                                 'type' => '3138262'
                                                               },
                                                        '1' => {
                                                                 'name' => 'rhs',
                                                                 'type' => '338773'
                                                               }
                                                      },
                                           'Return' => '3138284',
                                           'ShortName' => 'operator/='
                                         },
                            '3111594' => {
                                           'Class' => '3110838',
                                           'Header' => undef,
                                           'InLine' => 2,
                                           'Line' => '101',
                                           'MnglName' => '_ZN9exactreal7ElementINS_13RationalFieldEEdVERK10__gmp_exprIA1_12__mpq_structS5_E',
                                           'Param' => {
                                                        '0' => {
                                                                 'name' => 'this',
                                                                 'type' => '3138262'
                                                               },
                                                        '1' => {
                                                                 'name' => 'rhs',
                                                                 'type' => '387689'
                                                               }
                                                      },
                                           'Return' => '3138284',
                                           'ShortName' => 'operator/='
                                         },
                            '3111630' => {
                                           'Class' => '3110838',
                                           'Const' => 1,
                                           'Header' => undef,
                                           'InLine' => 2,
                                           'Line' => '103',
                                           'MnglName' => '_ZNK9exactreal7ElementINS_13RationalFieldEE7truedivERKS2_',
                                           'Param' => {
                                                        '0' => {
                                                                 'name' => 'this',
                                                                 'type' => '3138279'
                                                               },
                                                        '1' => {
                                                                 'name' => 'rhs',
                                                                 'type' => '3138290'
                                                               }
                                                      },
                                           'Return' => '2785742',
                                           'ShortName' => 'truediv'
                                         },
                            '3111666' => {
                                           'Class' => '3110838',
                                           'Const' => 1,
                                           'Header' => undef,
                                           'InLine' => 2,
                                           'Line' => '105',
                                           'MnglName' => '_ZNK9exactreal7ElementINS_13RationalFieldEE8floordivERKS2_',
                                           'Param' => {
                                                        '0' => {
                                                                 'name' => 'this',
                                                                 'type' => '3138279'
                                                               },
                                                        '1' => {
                                                                 'name' => 'rhs',
                                                                 'type' => '3138290'
                                                               }
                                                      },
                                           'Return' => '334954',
                                           'ShortName' => 'floordiv'
                                         },
                            '3111702' => {
                                           'Class' => '3110838',
                                           'Const' => 1,
                                           'Header' => undef,
                                           'InLine' => 2,
                                           'Line' => '108',
                                           'MnglName' => '_ZNK9exactreal7ElementINS_13RationalFieldEE4unitEv',
                                           'Param' => {
                                                        '0' => {
                                                                 'name' => 'this',
                                                                 'type' => '3138279'
                                                               }
                                                      },
                                           'Return' => '316089',
                                           'ShortName' => 'unit'
                                         },
                            '3111733' => {
                                           'Class' => '3110838',
                                           'Const' => 1,
                                           'Header' => undef,
                                           'InLine' => 2,
                                           'Line' => '110',
                                           'MnglName' => '_ZNK9exactreal7ElementINS_13RationalFieldEE5floorEv',
                                           'Param' => {
                                                        '0' => {
                                                                 'name' => 'this',
                                                                 'type' => '3138279'
                                                               }
                                                      },
                                           'Return' => '334954',
                                           'ShortName' => 'floor'
                                         },
                            '3111764' => {
                                           'Class' => '3110838',
                                           'Const' => 1,
                                           'Header' => undef,
                                           'InLine' => 2,
                                           'Line' => '111',
                                           'MnglName' => '_ZNK9exactreal7ElementINS_13RationalFieldEE4ceilEv',
                                           'Param' => {
                                                        '0' => {
                                                                 'name' => 'this',
                                                                 'type' => '3138279'
                                                               }
                                                      },
                                           'Return' => '334954',
                                           'ShortName' => 'ceil'
                                         },
                            '3111795' => {
                                           'Class' => '3110838',
                                           'Const' => 1,
                                           'Header' => undef,
                                           'InLine' => 2,
                                           'Line' => '113',
                                           'MnglName' => '_ZNK9exactreal7ElementINS_13RationalFieldEEeqERKS2_',
                                           'Param' => {
                                                        '0' => {
                                                                 'name' => 'this',
                                                                 'type' => '3138279'
                                                               },
                                                        '1' => {
                                                                 'name' => 'rhs',
                                                                 'type' => '3138290'
                                                               }
                                                      },
                                           'Return' => '316089',
                                           'ShortName' => 'operator=='
                                         },
                            '3111831' => {
                                           'Class' => '3110838',
                                           'Const' => 1,
                                           'Header' => undef,
                                           'InLine' => 2,
                                           'Line' => '114',
                                           'MnglName' => '_ZNK9exactreal7ElementINS_13RationalFieldEEltERKS2_',
                                           'Param' => {
                                                        '0' => {
                                                                 'name' => 'this',
                                                                 'type' => '3138279'
                                                               },
                                                        '1' => {
                                                                 'name' => 'rhs',
                                                                 'type' => '3138290'
                                                               }
                                                      },
                                           'Return' => '316089',
                                           'ShortName' => 'operator<'
                                         },
                            '3111867' => {
                                           'Class' => '3110838',
                                           'Const' => 1,
                                           'Header' => undef,
                                           'InLine' => 2,
                                           'Line' => '116',
                                           'MnglName' => '_ZNK9exactreal7ElementINS_13RationalFieldEEeqERKNS_10RealNumberE',
                                           'Param' => {
                                                        '0' => {
                                                                 'name' => 'this',
                                                                 'type' => '3138279'
                                                               },
                                                        '1' => {
                                                                 'name' => 'rhs',
                                                                 'type' => '438625'
                                                               }
                                                      },
                                           'Return' => '316089',
                                           'ShortName' => 'operator=='
                                         },
                            '3111903' => {
                                           'Class' => '3110838',
                                           'Const' => 1,
                                           'Header' => undef,
                                           'InLine' => 2,
                                           'Line' => '117',
                                           'MnglName' => '_ZNK9exactreal7ElementINS_13RationalFieldEEltERKNS_10RealNumberE',
                                           'Param' => {
                                                        '0' => {
                                                                 'name' => 'this',
                                                                 'type' => '3138279'
                                                               },
                                                        '1' => {
                                                                 'name' => 'rhs',
                                                                 'type' => '438625'
                                                               }
                                                      },
                                           'Return' => '316089',
                                           'ShortName' => 'operator<'
                                         },
                            '3111939' => {
                                           'Class' => '3110838',
                                           'Const' => 1,
                                           'Header' => undef,
                                           'InLine' => 2,
                                           'Line' => '118',
                                           'MnglName' => '_ZNK9exactreal7ElementINS_13RationalFieldEEgtERKNS_10RealNumberE',
                                           'Param' => {
                                                        '0' => {
                                                                 'name' => 'this',
                                                                 'type' => '3138279'
                                                               },
                                                        '1' => {
                                                                 'name' => 'rhs',
                                                                 'type' => '438625'
                                                               }
                                                      },
                                           'Return' => '316089',
                                           'ShortName' => 'operator>'
                                         },
                            '3111975' => {
                                           'Class' => '3110838',
                                           'Const' => 1,
                                           'Header' => undef,
                                           'InLine' => 2,
                                           'Line' => '120',
                                           'MnglName' => '_ZNK9exactreal7ElementINS_13RationalFieldEEeqERK10__gmp_exprIA1_12__mpq_structS5_E',
                                           'Param' => {
                                                        '0' => {
                                                                 'name' => 'this',
                                                                 'type' => '3138279'
                                                               },
                                                        '1' => {
                                                                 'name' => 'rhs',
                                                                 'type' => '387689'
                                                               }
                                                      },
                                           'Return' => '316089',
                                           'ShortName' => 'operator=='
                                         },
                            '3112011' => {
                                           'Class' => '3110838',
                                           'Const' => 1,
                                           'Header' => undef,
                                           'InLine' => 2,
                                           'Line' => '121',
                                           'MnglName' => '_ZNK9exactreal7ElementINS_13RationalFieldEEltERK10__gmp_exprIA1_12__mpq_structS5_E',
                                           'Param' => {
                                                        '0' => {
                                                                 'name' => 'this',
                                                                 'type' => '3138279'
                                                               },
                                                        '1' => {
                                                                 'name' => 'rhs',
                                                                 'type' => '387689'
                                                               }
                                                      },
                                           'Return' => '316089',
                                           'ShortName' => 'operator<'
                                         },
                            '3112047' => {
                                           'Class' => '3110838',
                                           'Const' => 1,
                                           'Header' => undef,
                                           'InLine' => 2,
                                           'Line' => '122',
                                           'MnglName' => '_ZNK9exactreal7ElementINS_13RationalFieldEEgtERK10__gmp_exprIA1_12__mpq_structS5_E',
                                           'Param' => {
                                                        '0' => {
                                                                 'name' => 'this',
                                                                 'type' => '3138279'
                                                               },
                                                        '1' => {
                                                                 'name' => 'rhs',
                                                                 'type' => '387689'
                                                               }
                                                      },
                                           'Return' => '316089',
                                           'ShortName' => 'operator>'
                                         },
                            '3112083' => {
                                           'Class' => '3110838',
                                           'Const' => 1,
                                           'Header' => undef,
                                           'InLine' => 2,
                                           'Line' => '124',
                                           'MnglName' => '_ZNK9exactreal7ElementINS_13RationalFieldEEeqERK10__gmp_exprIA1_12__mpz_structS5_E',
                                           'Param' => {
                                                        '0' => {
                                                                 'name' => 'this',
                                                                 'type' => '3138279'
                                                               },
                                                        '1' => {
                                                                 'name' => 'rhs',
                                                                 'type' => '338773'
                                                               }
                                                      },
                                           'Return' => '316089',
                                           'ShortName' => 'operator=='
                                         },
                            '3112119' => {
                                           'Class' => '3110838',
                                           'Const' => 1,
                                           'Header' => undef,
                                           'InLine' => 2,
                                           'Line' => '125',
                                           'MnglName' => '_ZNK9exactreal7ElementINS_13RationalFieldEEltERK10__gmp_exprIA1_12__mpz_structS5_E',
                                           'Param' => {
                                                        '0' => {
                                                                 'name' => 'this',
                                                                 'type' => '3138279'
                                                               },
                                                        '1' => {
                                                                 'name' => 'rhs',
                                                                 'type' => '338773'
                                                               }
                                                      },
                                           'Return' => '316089',
                                           'ShortName' => 'operator<'
                                         },
                            '3112155' => {
                                           'Class' => '3110838',
                                           'Const' => 1,
                                           'Header' => undef,
                                           'InLine' => 2,
                                           'Line' => '126',
                                           'MnglName' => '_ZNK9exactreal7ElementINS_13RationalFieldEEgtERK10__gmp_exprIA1_12__mpz_structS5_E',
                                           'Param' => {
                                                        '0' => {
                                                                 'name' => 'this',
                                                                 'type' => '3138279'
                                                               },
                                                        '1' => {
                                                                 'name' => 'rhs',
                                                                 'type' => '338773'
                                                               }
                                                      },
                                           'Return' => '316089',
                                           'ShortName' => 'operator>'
                                         },
                            '3112191' => {
                                           'Class' => '3110838',
                                           'Const' => 1,
                                           'Header' => undef,
                                           'InLine' => 2,
                                           'Line' => '128',
                                           'MnglName' => '_ZNK9exactreal7ElementINS_13RationalFieldEEeqEx',
                                           'Param' => {
                                                        '0' => {
                                                                 'name' => 'this',
                                                                 'type' => '3138279'
                                                               },
                                                        '1' => {
                                                                 'name' => 'rhs',
                                                                 'type' => '315588'
                                                               }
                                                      },
                                           'Return' => '316089',
                                           'ShortName' => 'operator=='
                                         },
                            '3112227' => {
                                           'Class' => '3110838',
                                           'Const' => 1,
                                           'Header' => undef,
                                           'InLine' => 2,
                                           'Line' => '129',
                                           'MnglName' => '_ZNK9exactreal7ElementINS_13RationalFieldEEltEx',
                                           'Param' => {
                                                        '0' => {
                                                                 'name' => 'this',
                                                                 'type' => '3138279'
                                                               },
                                                        '1' => {
                                                                 'name' => 'rhs',
                                                                 'type' => '315588'
                                                               }
                                                      },
                                           'Return' => '316089',
                                           'ShortName' => 'operator<'
                                         },
                            '3112263' => {
                                           'Class' => '3110838',
                                           'Const' => 1,
                                           'Header' => undef,
                                           'InLine' => 2,
                                           'Line' => '130',
                                           'MnglName' => '_ZNK9exactreal7ElementINS_13RationalFieldEEgtEx',
                                           'Param' => {
                                                        '0' => {
                                                                 'name' => 'this',
                                                                 'type' => '3138279'
                                                               },
                                                        '1' => {
                                                                 'name' => 'rhs',
                                                                 'type' => '315588'
                                                               }
                                                      },
                                           'Return' => '316089',
                                           'ShortName' => 'operator>'
                                         },
                            '3112299' => {
                                           'Class' => '3110838',
                                           'Const' => 1,
                                           'Header' => undef,
                                           'InLine' => 2,
                                           'Line' => '132',
                                           'MnglName' => '_ZNK9exactreal7ElementINS_13RationalFieldEEcvbEv',
                                           'Param' => {
                                                        '0' => {
                                                                 'name' => 'this',
                                                                 'type' => '3138279'
                                                               }
                                                      },
                                           'Return' => '316089',
                                           'ShortName' => 'operator bool'
                                         },
                            '3112331' => {
                                           'Class' => '3110838',
                                           'Const' => 1,
                                           'Header' => undef,
                                           'InLine' => 2,
                                           'Line' => '134',
                                           'MnglName' => '_ZNK9exactreal7ElementINS_13RationalFieldEEcvdEv',
                                           'Param' => {
                                                        '0' => {
                                                                 'name' => 'this',
                                                                 'type' => '3138279'
                                                               }
                                                      },
                                           'Return' => '314792',
                                           'ShortName' => 'operator double'
                                         },
                            '3112363' => {
                                           'Class' => '3110838',
                                           'Const' => 1,
                                           'Header' => undef,
                                           'InLine' => 2,
                                           'Line' => '136',
                                           'MnglName' => '_ZNK9exactreal7ElementINS_13RationalFieldEEcvSt8optionalI10__gmp_exprIA1_12__mpz_structS6_EEEv',
                                           'Param' => {
                                                        '0' => {
                                                                 'name' => 'this',
                                                                 'type' => '3138279'
                                                               }
                                                      },
                                           'Return' => '2773972',
                                           'ShortName' => 'operator std::optional<__gmp_expr<__mpz_struct[1], __mpz_struct[1]> >',
                                           'TParam' => {
                                                         '0' => {
                                                                  'type' => 327165
                                                                }
                                                       }
                                         },
                            '3112395' => {
                                           'Class' => '3110838',
                                           'Const' => 1,
                                           'Header' => undef,
                                           'InLine' => 2,
                                           'Line' => '137',
                                           'MnglName' => '_ZNK9exactreal7ElementINS_13RationalFieldEEcvSt8optionalI10__gmp_exprIA1_12__mpq_structS6_EEEv',
                                           'Param' => {
                                                        '0' => {
                                                                 'name' => 'this',
                                                                 'type' => '3138279'
                                                               }
                                                      },
                                           'Return' => '258366',
                                           'ShortName' => 'operator std::optional<__gmp_expr<__mpq_struct[1], __mpq_struct[1]> >',
                                           'TParam' => {
                                                         '0' => {
                                                                  'type' => 334972
                                                                }
                                                       }
                                         },
                            '3112427' => {
                                           'Class' => '3110838',
                                           'Const' => 1,
                                           'Header' => undef,
                                           'InLine' => 2,
                                           'Line' => '139',
                                           'MnglName' => '_ZNK9exactreal7ElementINS_13RationalFieldEE6moduleEv',
                                           'Param' => {
                                                        '0' => {
                                                                 'name' => 'this',
                                                                 'type' => '3138279'
                                                               }
                                                      },
                                           'Reg' => {
                                                      '0' => 'rsi'
                                                    },
                                           'Return' => '2785732',
                                           'ShortName' => 'module'
                                         },
                            '3112458' => {
                                           'Class' => '3110838',
                                           'Header' => undef,
                                           'InLine' => 2,
                                           'Line' => '143',
                                           'MnglName' => '_ZN9exactreal7ElementINS_13RationalFieldEE7promoteERKSt10shared_ptrIKNS_6ModuleIS1_EEE',
                                           'Param' => {
                                                        '0' => {
                                                                 'name' => 'this',
                                                                 'type' => '3138262'
                                                               },
                                                        '1' => {
                                                                 'name' => 'parent',
                                                                 'type' => '3138267'
                                                               }
                                                      },
                                           'Return' => '3138284',
                                           'ShortName' => 'promote'
                                         },
                            '3112494' => {
                                           'Class' => '3110838',
                                           'Header' => undef,
                                           'InLine' => 2,
                                           'Line' => '150',
                                           'MnglName' => '_ZN9exactreal7ElementINS_13RationalFieldEE8simplifyEv',
                                           'Param' => {
                                                        '0' => {
                                                                 'name' => 'this',
                                                                 'type' => '3138262'
                                                               }
                                                      },
                                           'Return' => '3138284',
                                           'ShortName' => 'simplify'
                                         },
                            '3112736' => {
                                           'Class' => '3110838',
                                           'Header' => undef,
                                           'InLine' => 2,
                                           'Line' => '289',
                                           'MnglName' => '_ZN9exactreal7ElementINS_13RationalFieldEEdVIi10__gmp_exprIA1_12__mpq_struct17__gmp_binary_exprIS4_IS6_S6_El20__gmp_binary_dividesEEvEERS2_RKT_',
                                           'Param' => {
                                                        '0' => {
                                                                 'name' => 'this',
                                                                 'type' => '3138262'
                                                               },
                                                        '1' => {
                                                                 'name' => 'rhs',
                                                                 'type' => '324644'
                                                               }
                                                      },
                                           'Return' => '3138284',
                                           'ShortName' => 'operator/=<int>',
                                           'TParam' => {
                                                         '0' => {
                                                                  'key' => 'T',
                                                                  'type' => '313326'
                                                                }
                                                       }
                                         },
                            '3112780' => {
                                           'Class' => '3110838',
                                           'Header' => undef,
                                           'InLine' => 2,
                                           'Line' => '264',
                                           'MnglName' => '_ZN9exactreal7ElementINS_13RationalFieldEEmLIi10__gmp_exprIA1_12__mpq_struct17__gmp_binary_exprIS4_IS6_S6_El23__gmp_binary_multipliesEEEERS2_RKT_',
                                           'Param' => {
                                                        '0' => {
                                                                 'name' => 'this',
                                                                 'type' => '3138262'
                                                               },
                                                        '1' => {
                                                                 'name' => 'rhs',
                                                                 'type' => '324644'
                                                               }
                                                      },
                                           'Return' => '3138284',
                                           'ShortName' => 'operator*=<int>',
                                           'TParam' => {
                                                         '0' => {
                                                                  'key' => 'T',
                                                                  'type' => '313326'
                                                                }
                                                       }
                                         },
                            '3112872' => {
                                           'Class' => '3112839',
                                           'Header' => undef,
                                           'InLine' => 2,
                                           'Line' => '102',
                                           'MnglName' => '_ZN9exactreal6ModuleINS_13RationalFieldEE4makeERKSt6vectorISt10shared_ptrIKNS_10RealNumberEESaIS7_EE',
                                           'Param' => {
                                                        '0' => {
                                                                 'name' => 'basis',
                                                                 'type' => '3138764'
                                                               }
                                                      },
                                           'Return' => '2785434',
                                           'ShortName' => 'make',
                                           'Static' => 1
                                         },
                            '3112921' => {
                                           'Class' => '3112839',
                                           'Header' => undef,
                                           'InLine' => 2,
                                           'Line' => '107',
                                           'MnglName' => '_ZN9exactreal6ModuleINS_13RationalFieldEE4makeERKSt6vectorISt10shared_ptrIKNS_10RealNumberEESaIS7_EERKS1_',
                                           'Param' => {
                                                        '0' => {
                                                                 'name' => 'basis_',
                                                                 'type' => '3138764'
                                                               },
                                                        '1' => {
                                                                 'name' => 'ring',
                                                                 'type' => '430735'
                                                               }
                                                      },
                                           'Return' => '2785434',
                                           'ShortName' => 'make',
                                           'Static' => 1
                                         },
                            '3112955' => {
                                           'Class' => '3112839',
                                           'Const' => 1,
                                           'Header' => undef,
                                           'InLine' => 2,
                                           'Line' => '126',
                                           'MnglName' => '_ZNK9exactreal6ModuleINS_13RationalFieldEE4ringEv',
                                           'Param' => {
                                                        '0' => {
                                                                 'name' => 'this',
                                                                 'type' => '4684992'
                                                               }
                                                      },
                                           'Reg' => {
                                                      '0' => 'rdi'
                                                    },
                                           'Return' => '430735',
                                           'ShortName' => 'ring'
                                         },
                            '3112987' => {
                                           'Class' => '3112839',
                                           'Const' => 1,
                                           'Header' => undef,
                                           'InLine' => 2,
                                           'Line' => '116',
                                           'MnglName' => '_ZNK9exactreal6ModuleINS_13RationalFieldEE4rankEv',
                                           'Param' => {
                                                        '0' => {
                                                                 'name' => 'this',
                                                                 'type' => '4684992'
                                                               }
                                                      },
                                           'Reg' => {
                                                      '0' => 'rdi'
                                                    },
                                           'Return' => '3110367',
                                           'ShortName' => 'rank'
                                         },
                            '3113019' => {
                                           'Class' => '3112839',
                                           'Const' => 1,
                                           'Header' => undef,
                                           'InLine' => 2,
                                           'Line' => '170',
                                           'MnglName' => '_ZNK9exactreal6ModuleINS_13RationalFieldEE9submoduleERKS2_',
                                           'Param' => {
                                                        '0' => {
                                                                 'name' => 'this',
                                                                 'type' => '4684992'
                                                               },
                                                        '1' => {
                                                                 'name' => 'supermodule',
                                                                 'type' => '3138770'
                                                               }
                                                      },
                                           'Return' => '316089',
                                           'ShortName' => 'submodule'
                                         },
                            '3113056' => {
                                           'Class' => '3112839',
                                           'Const' => 1,
                                           'Header' => undef,
                                           'InLine' => 2,
                                           'Line' => '121',
                                           'MnglName' => '_ZNK9exactreal6ModuleINS_13RationalFieldEE5basisEv',
                                           'Param' => {
                                                        '0' => {
                                                                 'name' => 'this',
                                                                 'type' => '4684992'
                                                               }
                                                      },
                                           'Reg' => {
                                                      '0' => 'rdi'
                                                    },
                                           'Return' => '3139264',
                                           'ShortName' => 'basis'
                                         },
                            '3113088' => {
                                           'Class' => '3112839',
                                           'Const' => 1,
                                           'Header' => undef,
                                           'InLine' => 2,
                                           'Line' => '181',
                                           'MnglName' => '_ZNK9exactreal6ModuleINS_13RationalFieldEE3genEl',
                                           'Param' => {
                                                        '0' => {
                                                                 'name' => 'this',
                                                                 'type' => '4684992'
                                                               },
                                                        '1' => {
                                                                 'name' => 'j',
                                                                 'type' => '3110367'
                                                               }
                                                      },
                                           'Return' => '3110838',
                                           'ShortName' => 'gen'
                                         },
                            '3113126' => {
                                           'Class' => '3112839',
                                           'Const' => 1,
                                           'Header' => undef,
                                           'InLine' => 2,
                                           'Line' => '188',
                                           'MnglName' => '_ZNK9exactreal6ModuleINS_13RationalFieldEE4zeroEv',
                                           'Param' => {
                                                        '0' => {
                                                                 'name' => 'this',
                                                                 'type' => '4684992'
                                                               }
                                                      },
                                           'Return' => '3110838',
                                           'ShortName' => 'zero'
                                         },
                            '3113158' => {
                                           'Class' => '3112839',
                                           'Const' => 1,
                                           'Header' => undef,
                                           'InLine' => 2,
                                           'Line' => '131',
                                           'MnglName' => '_ZNK9exactreal6ModuleINS_13RationalFieldEEeqERKS2_',
                                           'Param' => {
                                                        '0' => {
                                                                 'name' => 'this',
                                                                 'type' => '4684992'
                                                               },
                                                        '1' => {
                                                                 'name' => 'rhs',
                                                                 'type' => '3138770'
                                                               }
                                                      },
                                           'Reg' => {
                                                      '0' => 'rdi',
                                                      '1' => 'rsi'
                                                    },
                                           'Return' => '316089',
                                           'ShortName' => 'operator=='
                                         },
                            '3113195' => {
                                           'Class' => '3112839',
                                           'Header' => undef,
                                           'InLine' => 2,
                                           'Line' => '137',
                                           'MnglName' => '_ZN9exactreal6ModuleINS_13RationalFieldEE4spanERKSt10shared_ptrIKS2_ES7_',
                                           'Param' => {
                                                        '0' => {
                                                                 'name' => 'm',
                                                                 'type' => '3138267'
                                                               },
                                                        '1' => {
                                                                 'name' => 'n',
                                                                 'type' => '3138267'
                                                               }
                                                      },
                                           'Return' => '2785434',
                                           'ShortName' => 'span',
                                           'Static' => 1
                                         },
                            '3114053' => {
                                           'Class' => '3113751',
                                           'Const' => 1,
                                           'Header' => undef,
                                           'InLine' => 2,
                                           'Line' => '61',
                                           'MnglName' => '_ZNK9exactreal7ElementINS_11NumberFieldEEixEl',
                                           'Param' => {
                                                        '0' => {
                                                                 'name' => 'this',
                                                                 'type' => '3140438'
                                                               },
                                                        '1' => {
                                                                 'name' => 'i',
                                                                 'type' => '3110380'
                                                               }
                                                      },
                                           'Return' => '386423',
                                           'ShortName' => 'operator[]'
                                         },
                            '3114125' => {
                                           'Class' => '3113751',
                                           'Const' => 1,
                                           'Header' => undef,
                                           'InLine' => 2,
                                           'Line' => '68',
                                           'MnglName' => '_ZNK9exactreal7ElementINS_11NumberFieldEE12coefficientsEv',
                                           'Param' => {
                                                        '0' => {
                                                                 'name' => 'this',
                                                                 'type' => '3140438'
                                                               }
                                                      },
                                           'Return' => '2803959',
                                           'ShortName' => 'coefficients'
                                         },
                            '3114156' => {
                                           'Class' => '3113751',
                                           'Const' => 1,
                                           'Header' => undef,
                                           'InLine' => 2,
                                           'Line' => '70',
                                           'MnglName' => '_ZNK9exactreal7ElementINS_11NumberFieldEE20rationalCoefficientsEv',
                                           'Param' => {
                                                        '0' => {
                                                                 'name' => 'this',
                                                                 'type' => '3140438'
                                                               }
                                                      },
                                           'Return' => '2756560',
                                           'ShortName' => 'rationalCoefficients'
                                         },
                            '3114187' => {
                                           'Class' => '3113751',
                                           'Const' => 1,
                                           'Header' => undef,
                                           'InLine' => 2,
                                           'Line' => '76',
                                           'MnglName' => '_ZNK9exactreal7ElementINS_11NumberFieldEE3arbEl',
                                           'Param' => {
                                                        '0' => {
                                                                 'name' => 'this',
                                                                 'type' => '3140438'
                                                               },
                                                        '1' => {
                                                                 'name' => 'accuracy',
                                                                 'type' => '314913'
                                                               }
                                                      },
                                           'Return' => '384090',
                                           'ShortName' => 'arb'
                                         },
                            '3114224' => {
                                           'Class' => '3113751',
                                           'Header' => undef,
                                           'InLine' => 2,
                                           'Line' => '78',
                                           'MnglName' => '_ZN9exactreal7ElementINS_11NumberFieldEEpLERKS2_',
                                           'Param' => {
                                                        '0' => {
                                                                 'name' => 'this',
                                                                 'type' => '3140415'
                                                               },
                                                        '1' => {
                                                                 'name' => 'rhs',
                                                                 'type' => '3140449'
                                                               }
                                                      },
                                           'Return' => '3140443',
                                           'ShortName' => 'operator+='
                                         },
                            '3114260' => {
                                           'Class' => '3113751',
                                           'Header' => undef,
                                           'InLine' => 2,
                                           'Line' => '79',
                                           'MnglName' => '_ZN9exactreal7ElementINS_11NumberFieldEEmIERKS2_',
                                           'Param' => {
                                                        '0' => {
                                                                 'name' => 'this',
                                                                 'type' => '3140415'
                                                               },
                                                        '1' => {
                                                                 'name' => 'rhs',
                                                                 'type' => '3140449'
                                                               }
                                                      },
                                           'Return' => '3140443',
                                           'ShortName' => 'operator-='
                                         },
                            '3114296' => {
                                           'Class' => '3113751',
                                           'Header' => undef,
                                           'InLine' => 2,
                                           'Line' => '80',
                                           'MnglName' => '_ZN9exactreal7ElementINS_11NumberFieldEEmLERKS2_',
                                           'Param' => {
                                                        '0' => {
                                                                 'name' => 'this',
                                                                 'type' => '3140415'
                                                               },
                                                        '1' => {
                                                                 'name' => 'rhs',
                                                                 'type' => '3140449'
                                                               }
                                                      },
                                           'Return' => '3140443',
                                           'ShortName' => 'operator*='
                                         },
                            '3114332' => {
                                           'Class' => '3113751',
                                           'Header' => undef,
                                           'InLine' => 2,
                                           'Line' => '82',
                                           'MnglName' => '_ZN9exactreal7ElementINS_11NumberFieldEEmLERKNS_10RealNumberE',
                                           'Param' => {
                                                        '0' => {
                                                                 'name' => 'this',
                                                                 'type' => '3140415'
                                                               },
                                                        '1' => {
                                                                 'name' => 'rhs',
                                                                 'type' => '438625'
                                                               }
                                                      },
                                           'Return' => '3140443',
                                           'ShortName' => 'operator*='
                                         },
                            '3114368' => {
                                           'Class' => '3113751',
                                           'Const' => 1,
                                           'Header' => undef,
                                           'InLine' => 2,
                                           'Line' => '84',
                                           'MnglName' => '_ZNK9exactreal7ElementINS_11NumberFieldEEngEv',
                                           'Param' => {
                                                        '0' => {
                                                                 'name' => 'this',
                                                                 'type' => '3140438'
                                                               }
                                                      },
                                           'Return' => '3113751',
                                           'ShortName' => 'operator-'
                                         },
                            '3114399' => {
                                           'Class' => '3113751',
                                           'Header' => undef,
                                           'InLine' => 2,
                                           'Line' => '93',
                                           'MnglName' => '_ZN9exactreal7ElementINS_11NumberFieldEEmLERK10__gmp_exprIA1_12__mpz_structS5_E',
                                           'Param' => {
                                                        '0' => {
                                                                 'name' => 'this',
                                                                 'type' => '3140415'
                                                               },
                                                        '1' => {
                                                                 'name' => 'rhs',
                                                                 'type' => '338773'
                                                               }
                                                      },
                                           'Return' => '3140443',
                                           'ShortName' => 'operator*='
                                         },
                            '3114436' => {
                                           'Class' => '3113751',
                                           'Header' => undef,
                                           'InLine' => 2,
                                           'Line' => '94',
                                           'MnglName' => '_ZN9exactreal7ElementINS_11NumberFieldEEmLERK10__gmp_exprIA1_12__mpq_structS5_E',
                                           'Param' => {
                                                        '0' => {
                                                                 'name' => 'this',
                                                                 'type' => '3140415'
                                                               },
                                                        '1' => {
                                                                 'name' => 'rhs',
                                                                 'type' => '387689'
                                                               }
                                                      },
                                           'Return' => '3140443',
                                           'ShortName' => 'operator*='
                                         },
                            '3114473' => {
                                           'Class' => '3113751',
                                           'Header' => undef,
                                           'InLine' => 2,
                                           'Line' => '100',
                                           'MnglName' => '_ZN9exactreal7ElementINS_11NumberFieldEEdVERK10__gmp_exprIA1_12__mpz_structS5_E',
                                           'Param' => {
                                                        '0' => {
                                                                 'name' => 'this',
                                                                 'type' => '3140415'
                                                               },
                                                        '1' => {
                                                                 'name' => 'rhs',
                                                                 'type' => '338773'
                                                               }
                                                      },
                                           'Return' => '3140443',
                                           'ShortName' => 'operator/='
                                         },
                            '3114510' => {
                                           'Class' => '3113751',
                                           'Header' => undef,
                                           'InLine' => 2,
                                           'Line' => '101',
                                           'MnglName' => '_ZN9exactreal7ElementINS_11NumberFieldEEdVERK10__gmp_exprIA1_12__mpq_structS5_E',
                                           'Param' => {
                                                        '0' => {
                                                                 'name' => 'this',
                                                                 'type' => '3140415'
                                                               },
                                                        '1' => {
                                                                 'name' => 'rhs',
                                                                 'type' => '387689'
                                                               }
                                                      },
                                           'Return' => '3140443',
                                           'ShortName' => 'operator/='
                                         },
                            '3114547' => {
                                           'Class' => '3113751',
                                           'Const' => 1,
                                           'Header' => undef,
                                           'InLine' => 2,
                                           'Line' => '103',
                                           'MnglName' => '_ZNK9exactreal7ElementINS_11NumberFieldEE7truedivERKS2_',
                                           'Param' => {
                                                        '0' => {
                                                                 'name' => 'this',
                                                                 'type' => '3140438'
                                                               },
                                                        '1' => {
                                                                 'name' => 'rhs',
                                                                 'type' => '3140449'
                                                               }
                                                      },
                                           'Return' => '2807333',
                                           'ShortName' => 'truediv'
                                         },
                            '3114584' => {
                                           'Class' => '3113751',
                                           'Const' => 1,
                                           'Header' => undef,
                                           'InLine' => 2,
                                           'Line' => '105',
                                           'MnglName' => '_ZNK9exactreal7ElementINS_11NumberFieldEE8floordivERKS2_',
                                           'Param' => {
                                                        '0' => {
                                                                 'name' => 'this',
                                                                 'type' => '3140438'
                                                               },
                                                        '1' => {
                                                                 'name' => 'rhs',
                                                                 'type' => '3140449'
                                                               }
                                                      },
                                           'Return' => '334954',
                                           'ShortName' => 'floordiv'
                                         },
                            '3114621' => {
                                           'Class' => '3113751',
                                           'Const' => 1,
                                           'Header' => undef,
                                           'InLine' => 2,
                                           'Line' => '108',
                                           'MnglName' => '_ZNK9exactreal7ElementINS_11NumberFieldEE4unitEv',
                                           'Param' => {
                                                        '0' => {
                                                                 'name' => 'this',
                                                                 'type' => '3140438'
                                                               }
                                                      },
                                           'Return' => '316089',
                                           'ShortName' => 'unit'
                                         },
                            '3114653' => {
                                           'Class' => '3113751',
                                           'Const' => 1,
                                           'Header' => undef,
                                           'InLine' => 2,
                                           'Line' => '110',
                                           'MnglName' => '_ZNK9exactreal7ElementINS_11NumberFieldEE5floorEv',
                                           'Param' => {
                                                        '0' => {
                                                                 'name' => 'this',
                                                                 'type' => '3140438'
                                                               }
                                                      },
                                           'Return' => '334954',
                                           'ShortName' => 'floor'
                                         },
                            '3114685' => {
                                           'Class' => '3113751',
                                           'Const' => 1,
                                           'Header' => undef,
                                           'InLine' => 2,
                                           'Line' => '111',
                                           'MnglName' => '_ZNK9exactreal7ElementINS_11NumberFieldEE4ceilEv',
                                           'Param' => {
                                                        '0' => {
                                                                 'name' => 'this',
                                                                 'type' => '3140438'
                                                               }
                                                      },
                                           'Return' => '334954',
                                           'ShortName' => 'ceil'
                                         },
                            '3114717' => {
                                           'Class' => '3113751',
                                           'Const' => 1,
                                           'Header' => undef,
                                           'InLine' => 2,
                                           'Line' => '113',
                                           'MnglName' => '_ZNK9exactreal7ElementINS_11NumberFieldEEeqERKS2_',
                                           'Param' => {
                                                        '0' => {
                                                                 'name' => 'this',
                                                                 'type' => '3140438'
                                                               },
                                                        '1' => {
                                                                 'name' => 'rhs',
                                                                 'type' => '3140449'
                                                               }
                                                      },
                                           'Return' => '316089',
                                           'ShortName' => 'operator=='
                                         },
                            '3114754' => {
                                           'Class' => '3113751',
                                           'Const' => 1,
                                           'Header' => undef,
                                           'InLine' => 2,
                                           'Line' => '114',
                                           'MnglName' => '_ZNK9exactreal7ElementINS_11NumberFieldEEltERKS2_',
                                           'Param' => {
                                                        '0' => {
                                                                 'name' => 'this',
                                                                 'type' => '3140438'
                                                               },
                                                        '1' => {
                                                                 'name' => 'rhs',
                                                                 'type' => '3140449'
                                                               }
                                                      },
                                           'Return' => '316089',
                                           'ShortName' => 'operator<'
                                         },
                            '3114791' => {
                                           'Class' => '3113751',
                                           'Const' => 1,
                                           'Header' => undef,
                                           'InLine' => 2,
                                           'Line' => '116',
                                           'MnglName' => '_ZNK9exactreal7ElementINS_11NumberFieldEEeqERKNS_10RealNumberE',
                                           'Param' => {
                                                        '0' => {
                                                                 'name' => 'this',
                                                                 'type' => '3140438'
                                                               },
                                                        '1' => {
                                                                 'name' => 'rhs',
                                                                 'type' => '438625'
                                                               }
                                                      },
                                           'Return' => '316089',
                                           'ShortName' => 'operator=='
                                         },
                            '3114828' => {
                                           'Class' => '3113751',
                                           'Const' => 1,
                                           'Header' => undef,
                                           'InLine' => 2,
                                           'Line' => '117',
                                           'MnglName' => '_ZNK9exactreal7ElementINS_11NumberFieldEEltERKNS_10RealNumberE',
                                           'Param' => {
                                                        '0' => {
                                                                 'name' => 'this',
                                                                 'type' => '3140438'
                                                               },
                                                        '1' => {
                                                                 'name' => 'rhs',
                                                                 'type' => '438625'
                                                               }
                                                      },
                                           'Return' => '316089',
                                           'ShortName' => 'operator<'
                                         },
                            '3114865' => {
                                           'Class' => '3113751',
                                           'Const' => 1,
                                           'Header' => undef,
                                           'InLine' => 2,
                                           'Line' => '118',
                                           'MnglName' => '_ZNK9exactreal7ElementINS_11NumberFieldEEgtERKNS_10RealNumberE',
                                           'Param' => {
                                                        '0' => {
                                                                 'name' => 'this',
                                                                 'type' => '3140438'
                                                               },
                                                        '1' => {
                                                                 'name' => 'rhs',
                                                                 'type' => '438625'
                                                               }
                                                      },
                                           'Return' => '316089',
                                           'ShortName' => 'operator>'
                                         },
                            '3114902' => {
                                           'Class' => '3113751',
                                           'Const' => 1,
                                           'Header' => undef,
                                           'InLine' => 2,
                                           'Line' => '120',
                                           'MnglName' => '_ZNK9exactreal7ElementINS_11NumberFieldEEeqERK10__gmp_exprIA1_12__mpq_structS5_E',
                                           'Param' => {
                                                        '0' => {
                                                                 'name' => 'this',
                                                                 'type' => '3140438'
                                                               },
                                                        '1' => {
                                                                 'name' => 'rhs',
                                                                 'type' => '387689'
                                                               }
                                                      },
                                           'Return' => '316089',
                                           'ShortName' => 'operator=='
                                         },
                            '3114939' => {
                                           'Class' => '3113751',
                                           'Const' => 1,
                                           'Header' => undef,
                                           'InLine' => 2,
                                           'Line' => '121',
                                           'MnglName' => '_ZNK9exactreal7ElementINS_11NumberFieldEEltERK10__gmp_exprIA1_12__mpq_structS5_E',
                                           'Param' => {
                                                        '0' => {
                                                                 'name' => 'this',
                                                                 'type' => '3140438'
                                                               },
                                                        '1' => {
                                                                 'name' => 'rhs',
                                                                 'type' => '387689'
                                                               }
                                                      },
                                           'Return' => '316089',
                                           'ShortName' => 'operator<'
                                         },
                            '3114976' => {
                                           'Class' => '3113751',
                                           'Const' => 1,
                                           'Header' => undef,
                                           'InLine' => 2,
                                           'Line' => '122',
                                           'MnglName' => '_ZNK9exactreal7ElementINS_11NumberFieldEEgtERK10__gmp_exprIA1_12__mpq_structS5_E',
                                           'Param' => {
                                                        '0' => {
                                                                 'name' => 'this',
                                                                 'type' => '3140438'
                                                               },
                                                        '1' => {
                                                                 'name' => 'rhs',
                                                                 'type' => '387689'
                                                               }
                                                      },
                                           'Return' => '316089',
                                           'ShortName' => 'operator>'
                                         },
                            '3115013' => {
                                           'Class' => '3113751',
                                           'Const' => 1,
                                           'Header' => undef,
                                           'InLine' => 2,
                                           'Line' => '124',
                                           'MnglName' => '_ZNK9exactreal7ElementINS_11NumberFieldEEeqERK10__gmp_exprIA1_12__mpz_structS5_E',
                                           'Param' => {
                                                        '0' => {
                                                                 'name' => 'this',
                                                                 'type' => '3140438'
                                                               },
                                                        '1' => {
                                                                 'name' => 'rhs',
                                                                 'type' => '338773'
                                                               }
                                                      },
                                           'Return' => '316089',
                                           'ShortName' => 'operator=='
                                         },
                            '3115050' => {
                                           'Class' => '3113751',
                                           'Const' => 1,
                                           'Header' => undef,
                                           'InLine' => 2,
                                           'Line' => '125',
                                           'MnglName' => '_ZNK9exactreal7ElementINS_11NumberFieldEEltERK10__gmp_exprIA1_12__mpz_structS5_E',
                                           'Param' => {
                                                        '0' => {
                                                                 'name' => 'this',
                                                                 'type' => '3140438'
                                                               },
                                                        '1' => {
                                                                 'name' => 'rhs',
                                                                 'type' => '338773'
                                                               }
                                                      },
                                           'Return' => '316089',
                                           'ShortName' => 'operator<'
                                         },
                            '3115087' => {
                                           'Class' => '3113751',
                                           'Const' => 1,
                                           'Header' => undef,
                                           'InLine' => 2,
                                           'Line' => '126',
                                           'MnglName' => '_ZNK9exactreal7ElementINS_11NumberFieldEEgtERK10__gmp_exprIA1_12__mpz_structS5_E',
                                           'Param' => {
                                                        '0' => {
                                                                 'name' => 'this',
                                                                 'type' => '3140438'
                                                               },
                                                        '1' => {
                                                                 'name' => 'rhs',
                                                                 'type' => '338773'
                                                               }
                                                      },
                                           'Return' => '316089',
                                           'ShortName' => 'operator>'
                                         },
                            '3115124' => {
                                           'Class' => '3113751',
                                           'Const' => 1,
                                           'Header' => undef,
                                           'InLine' => 2,
                                           'Line' => '128',
                                           'MnglName' => '_ZNK9exactreal7ElementINS_11NumberFieldEEeqEx',
                                           'Param' => {
                                                        '0' => {
                                                                 'name' => 'this',
                                                                 'type' => '3140438'
                                                               },
                                                        '1' => {
                                                                 'name' => 'rhs',
                                                                 'type' => '315588'
                                                               }
                                                      },
                                           'Return' => '316089',
                                           'ShortName' => 'operator=='
                                         },
                            '3115161' => {
                                           'Class' => '3113751',
                                           'Const' => 1,
                                           'Header' => undef,
                                           'InLine' => 2,
                                           'Line' => '129',
                                           'MnglName' => '_ZNK9exactreal7ElementINS_11NumberFieldEEltEx',
                                           'Param' => {
                                                        '0' => {
                                                                 'name' => 'this',
                                                                 'type' => '3140438'
                                                               },
                                                        '1' => {
                                                                 'name' => 'rhs',
                                                                 'type' => '315588'
                                                               }
                                                      },
                                           'Return' => '316089',
                                           'ShortName' => 'operator<'
                                         },
                            '3115198' => {
                                           'Class' => '3113751',
                                           'Const' => 1,
                                           'Header' => undef,
                                           'InLine' => 2,
                                           'Line' => '130',
                                           'MnglName' => '_ZNK9exactreal7ElementINS_11NumberFieldEEgtEx',
                                           'Param' => {
                                                        '0' => {
                                                                 'name' => 'this',
                                                                 'type' => '3140438'
                                                               },
                                                        '1' => {
                                                                 'name' => 'rhs',
                                                                 'type' => '315588'
                                                               }
                                                      },
                                           'Return' => '316089',
                                           'ShortName' => 'operator>'
                                         },
                            '3115235' => {
                                           'Class' => '3113751',
                                           'Const' => 1,
                                           'Header' => undef,
                                           'InLine' => 2,
                                           'Line' => '132',
                                           'MnglName' => '_ZNK9exactreal7ElementINS_11NumberFieldEEcvbEv',
                                           'Param' => {
                                                        '0' => {
                                                                 'name' => 'this',
                                                                 'type' => '3140438'
                                                               }
                                                      },
                                           'Return' => '316089',
                                           'ShortName' => 'operator bool'
                                         },
                            '3115268' => {
                                           'Class' => '3113751',
                                           'Const' => 1,
                                           'Header' => undef,
                                           'InLine' => 2,
                                           'Line' => '134',
                                           'MnglName' => '_ZNK9exactreal7ElementINS_11NumberFieldEEcvdEv',
                                           'Param' => {
                                                        '0' => {
                                                                 'name' => 'this',
                                                                 'type' => '3140438'
                                                               }
                                                      },
                                           'Return' => '314792',
                                           'ShortName' => 'operator double'
                                         },
                            '3115301' => {
                                           'Class' => '3113751',
                                           'Const' => 1,
                                           'Header' => undef,
                                           'InLine' => 2,
                                           'Line' => '136',
                                           'MnglName' => '_ZNK9exactreal7ElementINS_11NumberFieldEEcvSt8optionalI10__gmp_exprIA1_12__mpz_structS6_EEEv',
                                           'Param' => {
                                                        '0' => {
                                                                 'name' => 'this',
                                                                 'type' => '3140438'
                                                               }
                                                      },
                                           'Return' => '2773972',
                                           'ShortName' => 'operator std::optional<__gmp_expr<__mpz_struct[1], __mpz_struct[1]> >',
                                           'TParam' => {
                                                         '0' => {
                                                                  'type' => 327165
                                                                }
                                                       }
                                         },
                            '3115334' => {
                                           'Class' => '3113751',
                                           'Const' => 1,
                                           'Header' => undef,
                                           'InLine' => 2,
                                           'Line' => '137',
                                           'MnglName' => '_ZNK9exactreal7ElementINS_11NumberFieldEEcvSt8optionalI10__gmp_exprIA1_12__mpq_structS6_EEEv',
                                           'Param' => {
                                                        '0' => {
                                                                 'name' => 'this',
                                                                 'type' => '3140438'
                                                               }
                                                      },
                                           'Return' => '258366',
                                           'ShortName' => 'operator std::optional<__gmp_expr<__mpq_struct[1], __mpq_struct[1]> >',
                                           'TParam' => {
                                                         '0' => {
                                                                  'type' => 334972
                                                                }
                                                       }
                                         },
                            '3115367' => {
                                           'Class' => '3113751',
                                           'Const' => 1,
                                           'Header' => undef,
                                           'InLine' => 2,
                                           'Line' => '139',
                                           'MnglName' => '_ZNK9exactreal7ElementINS_11NumberFieldEE6moduleEv',
                                           'Param' => {
                                                        '0' => {
                                                                 'name' => 'this',
                                                                 'type' => '3140438'
                                                               }
                                                      },
                                           'Reg' => {
                                                      '0' => 'rsi'
                                                    },
                                           'Return' => '2803954',
                                           'ShortName' => 'module'
                                         },
                            '3115399' => {
                                           'Class' => '3113751',
                                           'Header' => undef,
                                           'InLine' => 2,
                                           'Line' => '143',
                                           'MnglName' => '_ZN9exactreal7ElementINS_11NumberFieldEE7promoteERKSt10shared_ptrIKNS_6ModuleIS1_EEE',
                                           'Param' => {
                                                        '0' => {
                                                                 'name' => 'this',
                                                                 'type' => '3140415'
                                                               },
                                                        '1' => {
                                                                 'name' => 'parent',
                                                                 'type' => '3140420'
                                                               }
                                                      },
                                           'Return' => '3140443',
                                           'ShortName' => 'promote'
                                         },
                            '3115436' => {
                                           'Class' => '3113751',
                                           'Header' => undef,
                                           'InLine' => 2,
                                           'Line' => '150',
                                           'MnglName' => '_ZN9exactreal7ElementINS_11NumberFieldEE8simplifyEv',
                                           'Param' => {
                                                        '0' => {
                                                                 'name' => 'this',
                                                                 'type' => '3140415'
                                                               }
                                                      },
                                           'Return' => '3140443',
                                           'ShortName' => 'simplify'
                                         },
                            '3115636' => {
                                           'Class' => '3113751',
                                           'Header' => undef,
                                           'InLine' => 2,
                                           'Line' => '289',
                                           'MnglName' => '_ZN9exactreal7ElementINS_11NumberFieldEEdVIN6eantic15renf_elem_classES5_vEERS2_RKT_',
                                           'Param' => {
                                                        '0' => {
                                                                 'name' => 'this',
                                                                 'type' => '3140415'
                                                               },
                                                        '1' => {
                                                                 'name' => 'rhs',
                                                                 'type' => '387695'
                                                               }
                                                      },
                                           'Return' => '3140443',
                                           'ShortName' => 'operator/=<eantic::renf_elem_class>',
                                           'TParam' => {
                                                         '0' => {
                                                                  'key' => 'T',
                                                                  'type' => '387713'
                                                                }
                                                       }
                                         },
                            '3115680' => {
                                           'Class' => '3113751',
                                           'Header' => undef,
                                           'InLine' => 2,
                                           'Line' => '289',
                                           'MnglName' => '_ZN9exactreal7ElementINS_11NumberFieldEEdVIiN6eantic15renf_elem_classEvEERS2_RKT_',
                                           'Param' => {
                                                        '0' => {
                                                                 'name' => 'this',
                                                                 'type' => '3140415'
                                                               },
                                                        '1' => {
                                                                 'name' => 'rhs',
                                                                 'type' => '324644'
                                                               }
                                                      },
                                           'Return' => '3140443',
                                           'ShortName' => 'operator/=<int>',
                                           'TParam' => {
                                                         '0' => {
                                                                  'key' => 'T',
                                                                  'type' => '313326'
                                                                }
                                                       }
                                         },
                            '3115724' => {
                                           'Class' => '3113751',
                                           'Header' => undef,
                                           'InLine' => 2,
                                           'Line' => '264',
                                           'MnglName' => '_ZN9exactreal7ElementINS_11NumberFieldEEmLIN6eantic15renf_elem_classES5_EERS2_RKT_',
                                           'Param' => {
                                                        '0' => {
                                                                 'name' => 'this',
                                                                 'type' => '3140415'
                                                               },
                                                        '1' => {
                                                                 'name' => 'rhs',
                                                                 'type' => '387695'
                                                               }
                                                      },
                                           'Return' => '3140443',
                                           'ShortName' => 'operator*=<eantic::renf_elem_class>',
                                           'TParam' => {
                                                         '0' => {
                                                                  'key' => 'T',
                                                                  'type' => '387713'
                                                                }
                                                       }
                                         },
                            '3115768' => {
                                           'Class' => '3113751',
                                           'Header' => undef,
                                           'InLine' => 2,
                                           'Line' => '264',
                                           'MnglName' => '_ZN9exactreal7ElementINS_11NumberFieldEEmLIiN6eantic15renf_elem_classEEERS2_RKT_',
                                           'Param' => {
                                                        '0' => {
                                                                 'name' => 'this',
                                                                 'type' => '3140415'
                                                               },
                                                        '1' => {
                                                                 'name' => 'rhs',
                                                                 'type' => '324644'
                                                               }
                                                      },
                                           'Return' => '3140443',
                                           'ShortName' => 'operator*=<int>',
                                           'TParam' => {
                                                         '0' => {
                                                                  'key' => 'T',
                                                                  'type' => '313326'
                                                                }
                                                       }
                                         },
                            '3115860' => {
                                           'Class' => '3115827',
                                           'Header' => undef,
                                           'InLine' => 2,
                                           'Line' => '102',
                                           'MnglName' => '_ZN9exactreal6ModuleINS_11NumberFieldEE4makeERKSt6vectorISt10shared_ptrIKNS_10RealNumberEESaIS7_EE',
                                           'Param' => {
                                                        '0' => {
                                                                 'name' => 'basis',
                                                                 'type' => '3150478'
                                                               }
                                                      },
                                           'Return' => '2803656',
                                           'ShortName' => 'make',
                                           'Static' => 1
                                         },
                            '3115909' => {
                                           'Class' => '3115827',
                                           'Header' => undef,
                                           'InLine' => 2,
                                           'Line' => '107',
                                           'MnglName' => '_ZN9exactreal6ModuleINS_11NumberFieldEE4makeERKSt6vectorISt10shared_ptrIKNS_10RealNumberEESaIS7_EERKS1_',
                                           'Param' => {
                                                        '0' => {
                                                                 'name' => 'basis_',
                                                                 'type' => '3150478'
                                                               },
                                                        '1' => {
                                                                 'name' => 'ring',
                                                                 'type' => '430777'
                                                               }
                                                      },
                                           'Return' => '2803656',
                                           'ShortName' => 'make',
                                           'Static' => 1
                                         },
                            '3115943' => {
                                           'Class' => '3115827',
                                           'Const' => 1,
                                           'Header' => undef,
                                           'InLine' => 2,
                                           'Line' => '126',
                                           'MnglName' => '_ZNK9exactreal6ModuleINS_11NumberFieldEE4ringEv',
                                           'Param' => {
                                                        '0' => {
                                                                 'name' => 'this',
                                                                 'type' => '4685477'
                                                               }
                                                      },
                                           'Reg' => {
                                                      '0' => 'rdi'
                                                    },
                                           'Return' => '430777',
                                           'ShortName' => 'ring'
                                         },
                            '3115975' => {
                                           'Class' => '3115827',
                                           'Const' => 1,
                                           'Header' => undef,
                                           'InLine' => 2,
                                           'Line' => '116',
                                           'MnglName' => '_ZNK9exactreal6ModuleINS_11NumberFieldEE4rankEv',
                                           'Param' => {
                                                        '0' => {
                                                                 'name' => 'this',
                                                                 'type' => '4685477'
                                                               }
                                                      },
                                           'Reg' => {
                                                      '0' => 'rdi'
                                                    },
                                           'Return' => '3110367',
                                           'ShortName' => 'rank'
                                         },
                            '3116007' => {
                                           'Class' => '3115827',
                                           'Const' => 1,
                                           'Header' => undef,
                                           'InLine' => 2,
                                           'Line' => '170',
                                           'MnglName' => '_ZNK9exactreal6ModuleINS_11NumberFieldEE9submoduleERKS2_',
                                           'Param' => {
                                                        '0' => {
                                                                 'name' => 'this',
                                                                 'type' => '4685477'
                                                               },
                                                        '1' => {
                                                                 'name' => 'supermodule',
                                                                 'type' => '3150484'
                                                               }
                                                      },
                                           'Return' => '316089',
                                           'ShortName' => 'submodule'
                                         },
                            '3116044' => {
                                           'Class' => '3115827',
                                           'Const' => 1,
                                           'Header' => undef,
                                           'InLine' => 2,
                                           'Line' => '121',
                                           'MnglName' => '_ZNK9exactreal6ModuleINS_11NumberFieldEE5basisEv',
                                           'Param' => {
                                                        '0' => {
                                                                 'name' => 'this',
                                                                 'type' => '4685477'
                                                               }
                                                      },
                                           'Reg' => {
                                                      '0' => 'rdi'
                                                    },
                                           'Return' => '3139264',
                                           'ShortName' => 'basis'
                                         },
                            '3116076' => {
                                           'Class' => '3115827',
                                           'Const' => 1,
                                           'Header' => undef,
                                           'InLine' => 2,
                                           'Line' => '181',
                                           'MnglName' => '_ZNK9exactreal6ModuleINS_11NumberFieldEE3genEl',
                                           'Param' => {
                                                        '0' => {
                                                                 'name' => 'this',
                                                                 'type' => '4685477'
                                                               },
                                                        '1' => {
                                                                 'name' => 'j',
                                                                 'type' => '3110367'
                                                               }
                                                      },
                                           'Return' => '3113751',
                                           'ShortName' => 'gen'
                                         },
                            '3116114' => {
                                           'Class' => '3115827',
                                           'Const' => 1,
                                           'Header' => undef,
                                           'InLine' => 2,
                                           'Line' => '188',
                                           'MnglName' => '_ZNK9exactreal6ModuleINS_11NumberFieldEE4zeroEv',
                                           'Param' => {
                                                        '0' => {
                                                                 'name' => 'this',
                                                                 'type' => '4685477'
                                                               }
                                                      },
                                           'Return' => '3113751',
                                           'ShortName' => 'zero'
                                         },
                            '3116146' => {
                                           'Class' => '3115827',
                                           'Const' => 1,
                                           'Header' => undef,
                                           'InLine' => 2,
                                           'Line' => '131',
                                           'MnglName' => '_ZNK9exactreal6ModuleINS_11NumberFieldEEeqERKS2_',
                                           'Param' => {
                                                        '0' => {
                                                                 'name' => 'this',
                                                                 'type' => '4685477'
                                                               },
                                                        '1' => {
                                                                 'name' => 'rhs',
                                                                 'type' => '3150484'
                                                               }
                                                      },
                                           'Reg' => {
                                                      '0' => 'rdi',
                                                      '1' => 'rsi'
                                                    },
                                           'Return' => '316089',
                                           'ShortName' => 'operator=='
                                         },
                            '3116183' => {
                                           'Class' => '3115827',
                                           'Header' => undef,
                                           'InLine' => 2,
                                           'Line' => '137',
                                           'MnglName' => '_ZN9exactreal6ModuleINS_11NumberFieldEE4spanERKSt10shared_ptrIKS2_ES7_',
                                           'Param' => {
                                                        '0' => {
                                                                 'name' => 'm',
                                                                 'type' => '3140420'
                                                               },
                                                        '1' => {
                                                                 'name' => 'n',
                                                                 'type' => '3140420'
                                                               }
                                                      },
                                           'Return' => '2803656',
                                           'ShortName' => 'span',
                                           'Static' => 1
                                         },
                            '3116769' => {
                                           'Header' => undef,
                                           'InLine' => 2,
                                           'Line' => '707',
                                           'MnglName' => '_ZN9exactreallsINS_11NumberFieldEEERSoS2_RKNS_7ElementIT_EE',
                                           'NameSpace' => 'exactreal',
                                           'Param' => {
                                                        '0' => {
                                                                 'name' => 'out',
                                                                 'type' => '438661'
                                                               },
                                                        '1' => {
                                                                 'name' => 'self',
                                                                 'type' => '3140449'
                                                               }
                                                      },
                                           'Return' => '438661',
                                           'ShortName' => 'operator<< <exactreal::NumberField>',
                                           'TParam' => {
                                                         '0' => {
                                                                  'key' => 'R',
                                                                  'type' => '386183'
                                                                }
                                                       }
                                         },
                            '3117043' => {
                                           'Header' => undef,
                                           'InLine' => 2,
                                           'Line' => '707',
                                           'MnglName' => '_ZN9exactreallsINS_13RationalFieldEEERSoS2_RKNS_7ElementIT_EE',
                                           'NameSpace' => 'exactreal',
                                           'Param' => {
                                                        '0' => {
                                                                 'name' => 'out',
                                                                 'type' => '438661'
                                                               },
                                                        '1' => {
                                                                 'name' => 'self',
                                                                 'type' => '3138290'
                                                               }
                                                      },
                                           'Return' => '438661',
                                           'ShortName' => 'operator<< <exactreal::RationalField>',
                                           'TParam' => {
                                                         '0' => {
                                                                  'key' => 'R',
                                                                  'type' => '385848'
                                                                }
                                                       }
                                         },
                            '3117173' => {
                                           'Header' => undef,
                                           'InLine' => 2,
                                           'Line' => '707',
                                           'MnglName' => '_ZN9exactreallsINS_11IntegerRingEEERSoS2_RKNS_7ElementIT_EE',
                                           'NameSpace' => 'exactreal',
                                           'Param' => {
                                                        '0' => {
                                                                 'name' => 'out',
                                                                 'type' => '438661'
                                                               },
                                                        '1' => {
                                                                 'name' => 'self',
                                                                 'type' => '3137325'
                                                               }
                                                      },
                                           'Return' => '438661',
                                           'ShortName' => 'operator<< <exactreal::IntegerRing>',
                                           'TParam' => {
                                                         '0' => {
                                                                  'key' => 'R',
                                                                  'type' => '385512'
                                                                }
                                                       }
                                         },
                            '379514' => {
                                          'Class' => '379312',
                                          'Const' => 1,
                                          'Header' => undef,
                                          'Line' => '49',
                                          'MnglName' => '_ZNK9exactreal10RealNumbercvdEv',
                                          'Param' => {
                                                       '0' => {
                                                                'name' => 'this',
                                                                'type' => '430918'
                                                              }
                                                     },
                                          'Return' => '314792',
                                          'ShortName' => 'operator double'
                                        },
                            '379546' => {
                                          'Class' => '379312',
                                          'Const' => 1,
                                          'Header' => undef,
                                          'Line' => '44',
                                          'MnglName' => '_ZNK9exactreal10RealNumbercvbEv',
                                          'Param' => {
                                                       '0' => {
                                                                'name' => 'this',
                                                                'type' => '430918'
                                                              }
                                                     },
                                          'Return' => '316089',
                                          'ShortName' => 'operator bool'
                                        },
                            '379663' => {
                                          'Class' => '379312',
                                          'Const' => 1,
                                          'Header' => undef,
                                          'Line' => '63',
                                          'MnglName' => '_ZNK9exactreal10RealNumber3arbEl',
                                          'Param' => {
                                                       '0' => {
                                                                'name' => 'this',
                                                                'type' => '430918'
                                                              },
                                                       '1' => {
                                                                'name' => 'prec',
                                                                'type' => '314913'
                                                              }
                                                     },
                                          'Return' => '384090',
                                          'ShortName' => 'arb'
                                        },
                            '379699' => {
                                          'Class' => '379312',
                                          'Const' => 1,
                                          'Header' => undef,
                                          'Line' => '63',
                                          'MnglName' => '_ZNK9exactreal10RealNumber6refineERNS_3ArbEl',
                                          'Param' => {
                                                       '0' => {
                                                                'name' => 'this',
                                                                'type' => '430918'
                                                              },
                                                       '1' => {
                                                                'name' => 'arb',
                                                                'type' => '392320'
                                                              },
                                                       '2' => {
                                                                'name' => 'prec',
                                                                'type' => '314921'
                                                              }
                                                     },
                                          'Return' => '1',
                                          'ShortName' => 'refine'
                                        },
                            '379777' => {
                                          'Class' => '379312',
                                          'Const' => 1,
                                          'Header' => undef,
                                          'Line' => '70',
                                          'MnglName' => '_ZNK9exactreal10RealNumberltERKS0_',
                                          'Param' => {
                                                       '0' => {
                                                                'name' => 'this',
                                                                'type' => '430918'
                                                              },
                                                       '1' => {
                                                                'name' => 'rhs',
                                                                'type' => '438625'
                                                              }
                                                     },
                                          'Return' => '316089',
                                          'ShortName' => 'operator<'
                                        },
                            '379813' => {
                                          'Class' => '379312',
                                          'Const' => 1,
                                          'Header' => undef,
                                          'Line' => '71',
                                          'MnglName' => '_ZNK9exactreal10RealNumbereqERKS0_',
                                          'Param' => {
                                                       '0' => {
                                                                'name' => 'this',
                                                                'type' => '430918'
                                                              },
                                                       '1' => {
                                                                'name' => 'rhs',
                                                                'type' => '438625'
                                                              }
                                                     },
                                          'Reg' => {
                                                     '0' => 'rdi',
                                                     '1' => 'rsi'
                                                   },
                                          'Return' => '316089',
                                          'ShortName' => 'operator=='
                                        },
                            '379849' => {
                                          'Class' => '379312',
                                          'Const' => 1,
                                          'Header' => undef,
                                          'Line' => '120',
                                          'MnglName' => '_ZNK9exactreal10RealNumberltERKNS_3ArfE',
                                          'Param' => {
                                                       '0' => {
                                                                'name' => 'this',
                                                                'type' => '430918'
                                                              },
                                                       '1' => {
                                                                'name' => 'rhs',
                                                                'type' => '387624'
                                                              }
                                                     },
                                          'Return' => '316089',
                                          'ShortName' => 'operator<'
                                        },
                            '379885' => {
                                          'Class' => '379312',
                                          'Const' => 1,
                                          'Header' => undef,
                                          'Line' => '135',
                                          'MnglName' => '_ZNK9exactreal10RealNumbergtERKNS_3ArfE',
                                          'Param' => {
                                                       '0' => {
                                                                'name' => 'this',
                                                                'type' => '430918'
                                                              },
                                                       '1' => {
                                                                'name' => 'rhs',
                                                                'type' => '387624'
                                                              }
                                                     },
                                          'Return' => '316089',
                                          'ShortName' => 'operator>'
                                        },
                            '379921' => {
                                          'Class' => '379312',
                                          'Const' => 1,
                                          'Header' => undef,
                                          'Line' => '82',
                                          'MnglName' => '_ZNK9exactreal10RealNumbereqERKNS_3ArfE',
                                          'Param' => {
                                                       '0' => {
                                                                'name' => 'this',
                                                                'type' => '430918'
                                                              },
                                                       '1' => {
                                                                'name' => 'arf',
                                                                'type' => '387624'
                                                              }
                                                     },
                                          'Return' => '316089',
                                          'ShortName' => 'operator=='
                                        },
                            '380029' => {
                                          'Class' => '379312',
                                          'Const' => 1,
                                          'Header' => undef,
                                          'Line' => '151',
                                          'MnglName' => '_ZNK9exactreal10RealNumbereqERK10__gmp_exprIA1_12__mpq_structS3_E',
                                          'Param' => {
                                                       '0' => {
                                                                'name' => 'this',
                                                                'type' => '430918'
                                                              },
                                                       '1' => {
                                                                'name' => 'rat',
                                                                'type' => '387689'
                                                              }
                                                     },
                                          'Return' => '316089',
                                          'ShortName' => 'operator=='
                                        },
                            '380173' => {
                                          'Class' => '379312',
                                          'Const' => 1,
                                          'Header' => undef,
                                          'Line' => '49',
                                          'MnglName' => '_ZNK9exactreal10RealNumber3cmpERKNS_3ArbE',
                                          'Param' => {
                                                       '0' => {
                                                                'name' => 'this',
                                                                'type' => '430918'
                                                              },
                                                       '1' => {
                                                                'name' => 'arb',
                                                                'type' => '387677'
                                                              }
                                                     },
                                          'Return' => '313326',
                                          'ShortName' => 'cmp'
                                        },
                            '380209' => {
                                          'Class' => '379312',
                                          'Const' => 1,
                                          'Header' => undef,
                                          'Line' => '100',
                                          'MnglName' => '_ZNK9exactreal10RealNumber6deglexERKS0_',
                                          'Param' => {
                                                       '0' => {
                                                                'name' => 'this',
                                                                'type' => '430918'
                                                              },
                                                       '1' => {
                                                                'name' => 'rhs_',
                                                                'type' => '438625'
                                                              }
                                                     },
                                          'Return' => '316089',
                                          'ShortName' => 'deglex'
                                        },
                            '380245' => {
                                          'Class' => '379312',
                                          'Const' => 1,
                                          'Header' => undef,
                                          'Line' => '183',
                                          'MnglName' => '_ZNK9exactreal10RealNumbermlERKS0_',
                                          'Param' => {
                                                       '0' => {
                                                                'name' => 'this',
                                                                'type' => '430918'
                                                              },
                                                       '1' => {
                                                                'name' => 'rhs',
                                                                'type' => '438625'
                                                              }
                                                     },
                                          'Return' => '85223',
                                          'ShortName' => 'operator*',
                                          'Virt' => 1,
                                          'VirtPos' => '4'
                                        },
                            '380290' => {
                                          'Class' => '379312',
                                          'Const' => 1,
                                          'Header' => undef,
                                          'Line' => '85',
                                          'MnglName' => '_ZNK9exactreal10RealNumberdvERKS0_',
                                          'Param' => {
                                                       '0' => {
                                                                'name' => 'this',
                                                                'type' => '430918'
                                                              },
                                                       '1' => {
                                                                'name' => 'rhs',
                                                                'type' => '438625'
                                                              }
                                                     },
                                          'Return' => '278279',
                                          'ShortName' => 'operator/',
                                          'Virt' => 1,
                                          'VirtPos' => '5'
                                        },
                            '380380' => {
                                          'Class' => '379312',
                                          'Header' => undef,
                                          'Line' => '115',
                                          'MnglName' => '_ZN9exactreal10RealNumber6randomEv',
                                          'Return' => '85223',
                                          'ShortName' => 'random',
                                          'Static' => 1
                                        },
                            '380397' => {
                                          'Class' => '379312',
                                          'Header' => undef,
                                          'Line' => '110',
                                          'MnglName' => '_ZN9exactreal10RealNumber6randomENS_4SeedE',
                                          'Param' => {
                                                       '0' => {
                                                                'name' => 'seed',
                                                                'type' => '386676'
                                                              }
                                                     },
                                          'Return' => '85223',
                                          'ShortName' => 'random',
                                          'Static' => 1
                                        },
                            '380425' => {
                                          'Class' => '379312',
                                          'Header' => undef,
                                          'Line' => '122',
                                          'MnglName' => '_ZN9exactreal10RealNumber6randomERKNS_3ArfES3_',
                                          'Param' => {
                                                       '0' => {
                                                                'name' => 'lower',
                                                                'type' => '387624'
                                                              },
                                                       '1' => {
                                                                'name' => 'upper',
                                                                'type' => '387624'
                                                              }
                                                     },
                                          'Return' => '85223',
                                          'ShortName' => 'random',
                                          'Static' => 1
                                        },
                            '380458' => {
                                          'Class' => '379312',
                                          'Header' => undef,
                                          'Line' => '126',
                                          'MnglName' => '_ZN9exactreal10RealNumber6randomERKNS_3ArfES3_NS_4SeedE',
                                          'Param' => {
                                                       '0' => {
                                                                'name' => 'lower',
                                                                'type' => '387624'
                                                              },
                                                       '1' => {
                                                                'name' => 'upper',
                                                                'type' => '387624'
                                                              },
                                                       '2' => {
                                                                'name' => 'seed',
                                                                'type' => '386676'
                                                              }
                                                     },
                                          'Return' => '85223',
                                          'ShortName' => 'random',
                                          'Static' => 1
                                        },
                            '380496' => {
                                          'Class' => '379312',
                                          'Header' => undef,
                                          'Line' => '183',
                                          'MnglName' => '_ZN9exactreal10RealNumber6randomEd',
                                          'Param' => {
                                                       '0' => {
                                                                'name' => 'x',
                                                                'type' => '314800'
                                                              }
                                                     },
                                          'Return' => '85223',
                                          'ShortName' => 'random',
                                          'Static' => 1
                                        },
                            '380524' => {
                                          'Class' => '379312',
                                          'Header' => undef,
                                          'Line' => '187',
                                          'MnglName' => '_ZN9exactreal10RealNumber6randomEdNS_4SeedE',
                                          'Param' => {
                                                       '0' => {
                                                                'name' => 'x',
                                                                'type' => '314800'
                                                              },
                                                       '1' => {
                                                                'name' => 'seed',
                                                                'type' => '386676'
                                                              }
                                                     },
                                          'Return' => '85223',
                                          'ShortName' => 'random',
                                          'Static' => 1
                                        },
                            '380557' => {
                                          'Class' => '379312',
                                          'Header' => undef,
                                          'Line' => '119',
                                          'MnglName' => '_ZN9exactreal10RealNumber8rationalERK10__gmp_exprIA1_12__mpq_structS3_E',
                                          'Param' => {
                                                       '0' => {
                                                                'name' => 'value',
                                                                'type' => '387689'
                                                              }
                                                     },
                                          'Return' => '85223',
                                          'ShortName' => 'rational',
                                          'Static' => 1
                                        },
                            '381052' => {
                                          'Class' => '380652',
                                          'Header' => undef,
                                          'Line' => '97',
                                          'MnglName' => '_ZN9exactreal3ArfaSERKS0_',
                                          'Param' => {
                                                       '0' => {
                                                                'name' => 'this',
                                                                'type' => '387619'
                                                              },
                                                       '1' => {
                                                                'name' => 'rhs',
                                                                'type' => '387624'
                                                              }
                                                     },
                                          'Return' => '387636',
                                          'ShortName' => 'operator='
                                        },
                            '381088' => {
                                          'Class' => '380652',
                                          'Header' => undef,
                                          'Line' => '102',
                                          'MnglName' => '_ZN9exactreal3ArfaSEOS0_',
                                          'Param' => {
                                                       '0' => {
                                                                'name' => 'this',
                                                                'type' => '387619'
                                                              },
                                                       '1' => {
                                                                'name' => 'rhs',
                                                                'type' => '387630'
                                                              }
                                                     },
                                          'Return' => '387636',
                                          'ShortName' => 'operator='
                                        },
                            '381124' => {
                                          'Class' => '380652',
                                          'Header' => undef,
                                          'Line' => '107',
                                          'MnglName' => '_ZN9exactreal3ArfaSEi',
                                          'Param' => {
                                                       '0' => {
                                                                'name' => 'this',
                                                                'type' => '387619'
                                                              },
                                                       '1' => {
                                                                'name' => 'rhs',
                                                                'type' => '313326'
                                                              }
                                                     },
                                          'Return' => '387636',
                                          'ShortName' => 'operator='
                                        },
                            '381160' => {
                                          'Class' => '380652',
                                          'Header' => undef,
                                          'Line' => '112',
                                          'MnglName' => '_ZN9exactreal3ArfaSEl',
                                          'Param' => {
                                                       '0' => {
                                                                'name' => 'this',
                                                                'type' => '387619'
                                                              },
                                                       '1' => {
                                                                'name' => 'rhs',
                                                                'type' => '314913'
                                                              }
                                                     },
                                          'Return' => '387636',
                                          'ShortName' => 'operator='
                                        },
                            '381232' => {
                                          'Class' => '380652',
                                          'Const' => 1,
                                          'Header' => undef,
                                          'Line' => '134',
                                          'MnglName' => '_ZNK9exactreal3ArfngEv',
                                          'Param' => {
                                                       '0' => {
                                                                'name' => 'this',
                                                                'type' => '2227970'
                                                              }
                                                     },
                                          'Return' => '380652',
                                          'ShortName' => 'operator-'
                                        },
                            '381263' => {
                                          'Class' => '380652',
                                          'Const' => 1,
                                          'Header' => undef,
                                          'Line' => '95',
                                          'MnglName' => '_ZNK9exactreal3ArfcvdEv',
                                          'Param' => {
                                                       '0' => {
                                                                'name' => 'this',
                                                                'type' => '2227970'
                                                              }
                                                     },
                                          'Return' => '314792',
                                          'ShortName' => 'operator double'
                                        },
                            '381295' => {
                                          'Class' => '380652',
                                          'Const' => 1,
                                          'Header' => undef,
                                          'Line' => '140',
                                          'MnglName' => '_ZNK9exactreal3Arf3absEv',
                                          'Param' => {
                                                       '0' => {
                                                                'name' => 'this',
                                                                'type' => '2227970'
                                                              }
                                                     },
                                          'Return' => '380652',
                                          'ShortName' => 'abs'
                                        },
                            '381326' => {
                                          'Class' => '380652',
                                          'Const' => 1,
                                          'Header' => undef,
                                          'Line' => '146',
                                          'MnglName' => '_ZNK9exactreal3Arf5floorEv',
                                          'Param' => {
                                                       '0' => {
                                                                'name' => 'this',
                                                                'type' => '2227970'
                                                              }
                                                     },
                                          'Return' => '334954',
                                          'ShortName' => 'floor'
                                        },
                            '381357' => {
                                          'Class' => '380652',
                                          'Const' => 1,
                                          'Header' => undef,
                                          'Line' => '158',
                                          'MnglName' => '_ZNK9exactreal3Arf4ceilEv',
                                          'Param' => {
                                                       '0' => {
                                                                'name' => 'this',
                                                                'type' => '2227970'
                                                              }
                                                     },
                                          'Return' => '334954',
                                          'ShortName' => 'ceil'
                                        },
                            '381388' => {
                                          'Class' => '380652',
                                          'Const' => 1,
                                          'Header' => undef,
                                          'Line' => '170',
                                          'MnglName' => '_ZNK9exactreal3Arf8mantissaEv',
                                          'Param' => {
                                                       '0' => {
                                                                'name' => 'this',
                                                                'type' => '2227970'
                                                              }
                                                     },
                                          'Return' => '334954',
                                          'ShortName' => 'mantissa'
                                        },
                            '381419' => {
                                          'Class' => '380652',
                                          'Const' => 1,
                                          'Header' => undef,
                                          'Line' => '172',
                                          'MnglName' => '_ZNK9exactreal3Arf8exponentEv',
                                          'Param' => {
                                                       '0' => {
                                                                'name' => 'this',
                                                                'type' => '2227970'
                                                              }
                                                     },
                                          'Return' => '334954',
                                          'ShortName' => 'exponent'
                                        },
                            '381450' => {
                                          'Class' => '380652',
                                          'Const' => 1,
                                          'Header' => undef,
                                          'Line' => '174',
                                          'MnglName' => '_ZNK9exactreal3Arf4logbEv',
                                          'Param' => {
                                                       '0' => {
                                                                'name' => 'this',
                                                                'type' => '2227970'
                                                              }
                                                     },
                                          'Return' => '314913',
                                          'ShortName' => 'logb'
                                        },
                            '381481' => {
                                          'Class' => '380652',
                                          'Header' => undef,
                                          'Line' => '122',
                                          'MnglName' => '_ZN9exactreal3ArfrSEl',
                                          'Param' => {
                                                       '0' => {
                                                                'name' => 'this',
                                                                'type' => '387619'
                                                              },
                                                       '1' => {
                                                                'name' => 'rhs',
                                                                'type' => '314921'
                                                              }
                                                     },
                                          'Return' => '387636',
                                          'ShortName' => 'operator>>='
                                        },
                            '381517' => {
                                          'Class' => '380652',
                                          'Header' => undef,
                                          'Line' => '117',
                                          'MnglName' => '_ZN9exactreal3ArflSEl',
                                          'Param' => {
                                                       '0' => {
                                                                'name' => 'this',
                                                                'type' => '387619'
                                                              },
                                                       '1' => {
                                                                'name' => 'rhs',
                                                                'type' => '314921'
                                                              }
                                                     },
                                          'Return' => '387636',
                                          'ShortName' => 'operator<<='
                                        },
                            '381553' => {
                                          'Class' => '380652',
                                          'Const' => 1,
                                          'Header' => undef,
                                          'Line' => '124',
                                          'MnglName' => '_ZNK9exactreal3ArfltERKS0_',
                                          'Param' => {
                                                       '0' => {
                                                                'name' => 'this',
                                                                'type' => '2227970'
                                                              },
                                                       '1' => {
                                                                'name' => 'rhs',
                                                                'type' => '387624'
                                                              }
                                                     },
                                          'Return' => '316089',
                                          'ShortName' => 'operator<'
                                        },
                            '381589' => {
                                          'Class' => '380652',
                                          'Const' => 1,
                                          'Header' => undef,
                                          'Line' => '126',
                                          'MnglName' => '_ZNK9exactreal3ArfeqERKS0_',
                                          'Param' => {
                                                       '0' => {
                                                                'name' => 'this',
                                                                'type' => '2227970'
                                                              },
                                                       '1' => {
                                                                'name' => 'rhs',
                                                                'type' => '387624'
                                                              }
                                                     },
                                          'Return' => '316089',
                                          'ShortName' => 'operator=='
                                        },
                            '381625' => {
                                          'Class' => '380652',
                                          'Const' => 1,
                                          'Header' => undef,
                                          'Line' => '128',
                                          'MnglName' => '_ZNK9exactreal3ArfltEl',
                                          'Param' => {
                                                       '0' => {
                                                                'name' => 'this',
                                                                'type' => '2227970'
                                                              },
                                                       '1' => {
                                                                'name' => 'rhs',
                                                                'type' => '314913'
                                                              }
                                                     },
                                          'Return' => '316089',
                                          'ShortName' => 'operator<'
                                        },
                            '381661' => {
                                          'Class' => '380652',
                                          'Const' => 1,
                                          'Header' => undef,
                                          'Line' => '130',
                                          'MnglName' => '_ZNK9exactreal3ArfgtEl',
                                          'Param' => {
                                                       '0' => {
                                                                'name' => 'this',
                                                                'type' => '2227970'
                                                              },
                                                       '1' => {
                                                                'name' => 'rhs',
                                                                'type' => '314913'
                                                              }
                                                     },
                                          'Return' => '316089',
                                          'ShortName' => 'operator>'
                                        },
                            '381697' => {
                                          'Class' => '380652',
                                          'Const' => 1,
                                          'Header' => undef,
                                          'Line' => '132',
                                          'MnglName' => '_ZNK9exactreal3ArfeqEl',
                                          'Param' => {
                                                       '0' => {
                                                                'name' => 'this',
                                                                'type' => '2227970'
                                                              },
                                                       '1' => {
                                                                'name' => 'rhs',
                                                                'type' => '314913'
                                                              }
                                                     },
                                          'Return' => '316089',
                                          'ShortName' => 'operator=='
                                        },
                            '381733' => {
                                          'Class' => '380652',
                                          'Header' => undef,
                                          'Line' => '184',
                                          'MnglName' => '_ZN9exactreal3Arf8randtestERN5flint7frandxxEll',
                                          'Param' => {
                                                       '0' => {
                                                                'name' => 'state',
                                                                'type' => '387648'
                                                              },
                                                       '1' => {
                                                                'name' => 'precision',
                                                                'type' => '384055'
                                                              },
                                                       '2' => {
                                                                'name' => 'magbits',
                                                                'type' => '384055'
                                                              }
                                                     },
                                          'Return' => '380652',
                                          'ShortName' => 'randtest',
                                          'Static' => 1
                                        },
                            '381771' => {
                                          'Class' => '380652',
                                          'Header' => undef,
                                          'Line' => '91',
                                          'MnglName' => '_ZN9exactreal3Arf5arf_tEv',
                                          'Param' => {
                                                       '0' => {
                                                                'name' => 'this',
                                                                'type' => '387619'
                                                              }
                                                     },
                                          'Reg' => {
                                                     '0' => 'rdi'
                                                   },
                                          'Return' => '387654',
                                          'ShortName' => 'arf_t'
                                        },
                            '381802' => {
                                          'Class' => '380652',
                                          'Const' => 1,
                                          'Header' => undef,
                                          'Line' => '93',
                                          'MnglName' => '_ZNK9exactreal3Arf5arf_tEv',
                                          'Param' => {
                                                       '0' => {
                                                                'name' => 'this',
                                                                'type' => '2227970'
                                                              }
                                                     },
                                          'Reg' => {
                                                     '0' => 'rdi'
                                                   },
                                          'Return' => '387660',
                                          'ShortName' => 'arf_t'
                                        },
                            '384454' => {
                                          'Class' => '384090',
                                          'Header' => undef,
                                          'Line' => '86',
                                          'MnglName' => '_ZN9exactreal3ArbaSERKS0_',
                                          'Param' => {
                                                       '0' => {
                                                                'name' => 'this',
                                                                'type' => '3126642'
                                                              },
                                                       '1' => {
                                                                'name' => 'rhs',
                                                                'type' => '387677'
                                                              }
                                                     },
                                          'Return' => '392320',
                                          'ShortName' => 'operator='
                                        },
                            '384490' => {
                                          'Class' => '384090',
                                          'Header' => undef,
                                          'Line' => '87',
                                          'MnglName' => '_ZN9exactreal3ArbaSEOS0_',
                                          'Param' => {
                                                       '0' => {
                                                                'name' => 'this',
                                                                'type' => '3126642'
                                                              },
                                                       '1' => {
                                                                'name' => 'rhs',
                                                                'type' => '387683'
                                                              }
                                                     },
                                          'Return' => '392320',
                                          'ShortName' => 'operator='
                                        },
                            '384526' => {
                                          'Class' => '384090',
                                          'Header' => undef,
                                          'Line' => '90',
                                          'MnglName' => '_ZN9exactreal3ArbaSERK10__gmp_exprIA1_12__mpz_structS3_E',
                                          'Param' => {
                                                       '0' => {
                                                                'name' => 'this',
                                                                'type' => '3126642'
                                                              },
                                                       '1' => {
                                                                'name' => 'rhs',
                                                                'type' => '338773'
                                                              }
                                                     },
                                          'Return' => '392320',
                                          'ShortName' => 'operator='
                                        },
                            '384562' => {
                                          'Class' => '384090',
                                          'Const' => 1,
                                          'Header' => undef,
                                          'Line' => '92',
                                          'MnglName' => '_ZNK9exactreal3ArbngEv',
                                          'Param' => {
                                                       '0' => {
                                                                'name' => 'this',
                                                                'type' => '5431783'
                                                              }
                                                     },
                                          'Return' => '384090',
                                          'ShortName' => 'operator-'
                                        },
                            '384593' => {
                                          'Class' => '384090',
                                          'Const' => 1,
                                          'Header' => undef,
                                          'Line' => '100',
                                          'MnglName' => '_ZNK9exactreal3ArbeqERKS0_',
                                          'Param' => {
                                                       '0' => {
                                                                'name' => 'this',
                                                                'type' => '5431783'
                                                              },
                                                       '1' => {
                                                                'name' => 'rhs',
                                                                'type' => '387677'
                                                              }
                                                     },
                                          'Return' => '85845',
                                          'ShortName' => 'operator=='
                                        },
                            '384629' => {
                                          'Class' => '384090',
                                          'Const' => 1,
                                          'Header' => undef,
                                          'Line' => '101',
                                          'MnglName' => '_ZNK9exactreal3ArbneERKS0_',
                                          'Param' => {
                                                       '0' => {
                                                                'name' => 'this',
                                                                'type' => '5431783'
                                                              },
                                                       '1' => {
                                                                'name' => 'rhs',
                                                                'type' => '387677'
                                                              }
                                                     },
                                          'Return' => '85845',
                                          'ShortName' => 'operator!='
                                        },
                            '384665' => {
                                          'Class' => '384090',
                                          'Const' => 1,
                                          'Header' => undef,
                                          'Line' => '102',
                                          'MnglName' => '_ZNK9exactreal3ArbltERKS0_',
                                          'Param' => {
                                                       '0' => {
                                                                'name' => 'this',
                                                                'type' => '5431783'
                                                              },
                                                       '1' => {
                                                                'name' => 'rhs',
                                                                'type' => '387677'
                                                              }
                                                     },
                                          'Return' => '85845',
                                          'ShortName' => 'operator<'
                                        },
                            '384701' => {
                                          'Class' => '384090',
                                          'Const' => 1,
                                          'Header' => undef,
                                          'Line' => '103',
                                          'MnglName' => '_ZNK9exactreal3ArbgtERKS0_',
                                          'Param' => {
                                                       '0' => {
                                                                'name' => 'this',
                                                                'type' => '5431783'
                                                              },
                                                       '1' => {
                                                                'name' => 'rhs',
                                                                'type' => '387677'
                                                              }
                                                     },
                                          'Return' => '85845',
                                          'ShortName' => 'operator>'
                                        },
                            '384737' => {
                                          'Class' => '384090',
                                          'Const' => 1,
                                          'Header' => undef,
                                          'Line' => '104',
                                          'MnglName' => '_ZNK9exactreal3ArbleERKS0_',
                                          'Param' => {
                                                       '0' => {
                                                                'name' => 'this',
                                                                'type' => '5431783'
                                                              },
                                                       '1' => {
                                                                'name' => 'rhs',
                                                                'type' => '387677'
                                                              }
                                                     },
                                          'Return' => '85845',
                                          'ShortName' => 'operator<='
                                        },
                            '384773' => {
                                          'Class' => '384090',
                                          'Const' => 1,
                                          'Header' => undef,
                                          'Line' => '105',
                                          'MnglName' => '_ZNK9exactreal3ArbgeERKS0_',
                                          'Param' => {
                                                       '0' => {
                                                                'name' => 'this',
                                                                'type' => '5431783'
                                                              },
                                                       '1' => {
                                                                'name' => 'rhs',
                                                                'type' => '387677'
                                                              }
                                                     },
                                          'Return' => '85845',
                                          'ShortName' => 'operator>='
                                        },
                            '384809' => {
                                          'Class' => '384090',
                                          'Const' => 1,
                                          'Header' => undef,
                                          'Line' => '118',
                                          'MnglName' => '_ZNK9exactreal3ArbltERK10__gmp_exprIA1_12__mpq_structS3_E',
                                          'Param' => {
                                                       '0' => {
                                                                'name' => 'this',
                                                                'type' => '5431783'
                                                              },
                                                       '1' => {
                                                                'name' => 'rhs',
                                                                'type' => '387689'
                                                              }
                                                     },
                                          'Return' => '85845',
                                          'ShortName' => 'operator<'
                                        },
                            '384845' => {
                                          'Class' => '384090',
                                          'Const' => 1,
                                          'Header' => undef,
                                          'Line' => '119',
                                          'MnglName' => '_ZNK9exactreal3ArbgtERK10__gmp_exprIA1_12__mpq_structS3_E',
                                          'Param' => {
                                                       '0' => {
                                                                'name' => 'this',
                                                                'type' => '5431783'
                                                              },
                                                       '1' => {
                                                                'name' => 'rhs',
                                                                'type' => '387689'
                                                              }
                                                     },
                                          'Return' => '85845',
                                          'ShortName' => 'operator>'
                                        },
                            '384881' => {
                                          'Class' => '384090',
                                          'Const' => 1,
                                          'Header' => undef,
                                          'Line' => '120',
                                          'MnglName' => '_ZNK9exactreal3ArbleERK10__gmp_exprIA1_12__mpq_structS3_E',
                                          'Param' => {
                                                       '0' => {
                                                                'name' => 'this',
                                                                'type' => '5431783'
                                                              },
                                                       '1' => {
                                                                'name' => 'rhs',
                                                                'type' => '387689'
                                                              }
                                                     },
                                          'Return' => '85845',
                                          'ShortName' => 'operator<='
                                        },
                            '384917' => {
                                          'Class' => '384090',
                                          'Const' => 1,
                                          'Header' => undef,
                                          'Line' => '121',
                                          'MnglName' => '_ZNK9exactreal3ArbgeERK10__gmp_exprIA1_12__mpq_structS3_E',
                                          'Param' => {
                                                       '0' => {
                                                                'name' => 'this',
                                                                'type' => '5431783'
                                                              },
                                                       '1' => {
                                                                'name' => 'rhs',
                                                                'type' => '387689'
                                                              }
                                                     },
                                          'Return' => '85845',
                                          'ShortName' => 'operator>='
                                        },
                            '384953' => {
                                          'Class' => '384090',
                                          'Const' => 1,
                                          'Header' => undef,
                                          'Line' => '122',
                                          'MnglName' => '_ZNK9exactreal3ArbeqERK10__gmp_exprIA1_12__mpq_structS3_E',
                                          'Param' => {
                                                       '0' => {
                                                                'name' => 'this',
                                                                'type' => '5431783'
                                                              },
                                                       '1' => {
                                                                'name' => 'rhs',
                                                                'type' => '387689'
                                                              }
                                                     },
                                          'Return' => '85845',
                                          'ShortName' => 'operator=='
                                        },
                            '384989' => {
                                          'Class' => '384090',
                                          'Const' => 1,
                                          'Header' => undef,
                                          'Line' => '123',
                                          'MnglName' => '_ZNK9exactreal3ArbneERK10__gmp_exprIA1_12__mpq_structS3_E',
                                          'Param' => {
                                                       '0' => {
                                                                'name' => 'this',
                                                                'type' => '5431783'
                                                              },
                                                       '1' => {
                                                                'name' => 'rhs',
                                                                'type' => '387689'
                                                              }
                                                     },
                                          'Return' => '85845',
                                          'ShortName' => 'operator!='
                                        },
                            '385025' => {
                                          'Class' => '384090',
                                          'Const' => 1,
                                          'Header' => undef,
                                          'Line' => '125',
                                          'MnglName' => '_ZNK9exactreal3Arb8is_exactEv',
                                          'Param' => {
                                                       '0' => {
                                                                'name' => 'this',
                                                                'type' => '5431783'
                                                              }
                                                     },
                                          'Return' => '316089',
                                          'ShortName' => 'is_exact'
                                        },
                            '385056' => {
                                          'Class' => '384090',
                                          'Const' => 1,
                                          'Header' => undef,
                                          'Line' => '126',
                                          'MnglName' => '_ZNK9exactreal3Arb9is_finiteEv',
                                          'Param' => {
                                                       '0' => {
                                                                'name' => 'this',
                                                                'type' => '5431783'
                                                              }
                                                     },
                                          'Return' => '316089',
                                          'ShortName' => 'is_finite'
                                        },
                            '385087' => {
                                          'Class' => '384090',
                                          'Const' => 1,
                                          'Header' => undef,
                                          'Line' => '129',
                                          'MnglName' => '_ZNK9exactreal3ArbcvSt4pairINS_3ArfES2_EEv',
                                          'Param' => {
                                                       '0' => {
                                                                'name' => 'this',
                                                                'type' => '5431783'
                                                              }
                                                     },
                                          'Return' => '85577',
                                          'ShortName' => 'operator std::pair<exactreal::Arf, exactreal::Arf>',
                                          'TParam' => {
                                                        '0' => {
                                                                 'type' => 380652
                                                               },
                                                        '1' => {
                                                                 'type' => 380652
                                                               }
                                                      }
                                        },
                            '385119' => {
                                          'Class' => '384090',
                                          'Const' => 1,
                                          'Header' => undef,
                                          'Line' => '131',
                                          'MnglName' => '_ZNK9exactreal3ArbcvdEv',
                                          'Param' => {
                                                       '0' => {
                                                                'name' => 'this',
                                                                'type' => '5431783'
                                                              }
                                                     },
                                          'Return' => '314792',
                                          'ShortName' => 'operator double'
                                        },
                            '385183' => {
                                          'Class' => '384090',
                                          'Header' => undef,
                                          'Line' => '138',
                                          'MnglName' => '_ZN9exactreal3Arb5arb_tEv',
                                          'Param' => {
                                                       '0' => {
                                                                'name' => 'this',
                                                                'type' => '3126642'
                                                              }
                                                     },
                                          'Reg' => {
                                                     '0' => 'rdi'
                                                   },
                                          'Return' => '392332',
                                          'ShortName' => 'arb_t'
                                        },
                            '385214' => {
                                          'Class' => '384090',
                                          'Const' => 1,
                                          'Header' => undef,
                                          'Line' => '140',
                                          'MnglName' => '_ZNK9exactreal3Arb5arb_tEv',
                                          'Param' => {
                                                       '0' => {
                                                                'name' => 'this',
                                                                'type' => '5431783'
                                                              }
                                                     },
                                          'Reg' => {
                                                     '0' => 'rdi'
                                                   },
                                          'Return' => '392338',
                                          'ShortName' => 'arb_t'
                                        },
                            '385245' => {
                                          'Class' => '384090',
                                          'Header' => undef,
                                          'Line' => '142',
                                          'MnglName' => '_ZN9exactreal3Arb4zeroEv',
                                          'Return' => '384090',
                                          'ShortName' => 'zero',
                                          'Static' => 1
                                        },
                            '385262' => {
                                          'Class' => '384090',
                                          'Header' => undef,
                                          'Line' => '143',
                                          'MnglName' => '_ZN9exactreal3Arb3oneEv',
                                          'Return' => '384090',
                                          'ShortName' => 'one',
                                          'Static' => 1
                                        },
                            '385280' => {
                                          'Class' => '384090',
                                          'Header' => undef,
                                          'Line' => '144',
                                          'MnglName' => '_ZN9exactreal3Arb7pos_infEv',
                                          'Return' => '384090',
                                          'ShortName' => 'pos_inf',
                                          'Static' => 1
                                        },
                            '385297' => {
                                          'Class' => '384090',
                                          'Header' => undef,
                                          'Line' => '145',
                                          'MnglName' => '_ZN9exactreal3Arb7neg_infEv',
                                          'Return' => '384090',
                                          'ShortName' => 'neg_inf',
                                          'Static' => 1
                                        },
                            '385314' => {
                                          'Class' => '384090',
                                          'Header' => undef,
                                          'Line' => '147',
                                          'MnglName' => '_ZN9exactreal3Arb11zero_pm_infEv',
                                          'Return' => '384090',
                                          'ShortName' => 'zero_pm_inf',
                                          'Static' => 1
                                        },
                            '385331' => {
                                          'Class' => '384090',
                                          'Header' => undef,
                                          'Line' => '148',
                                          'MnglName' => '_ZN9exactreal3Arb13indeterminateEv',
                                          'Return' => '384090',
                                          'ShortName' => 'indeterminate',
                                          'Static' => 1
                                        },
                            '385382' => {
                                          'Class' => '384090',
                                          'Header' => undef,
                                          'Line' => '151',
                                          'MnglName' => '_ZN9exactreal3Arb8randtestERN5flint7frandxxEll',
                                          'Param' => {
                                                       '0' => {
                                                                'name' => 'state',
                                                                'type' => '387648'
                                                              },
                                                       '1' => {
                                                                'name' => 'precision',
                                                                'type' => '384055'
                                                              },
                                                       '2' => {
                                                                'name' => 'magbits',
                                                                'type' => '384055'
                                                              }
                                                     },
                                          'Return' => '384090',
                                          'ShortName' => 'randtest',
                                          'Static' => 1
                                        },
                            '385420' => {
                                          'Class' => '384090',
                                          'Header' => undef,
                                          'Line' => '152',
                                          'MnglName' => '_ZN9exactreal3Arb14randtest_exactERN5flint7frandxxEll',
                                          'Param' => {
                                                       '0' => {
                                                                'name' => 'state',
                                                                'type' => '387648'
                                                              },
                                                       '1' => {
                                                                'name' => 'precision',
                                                                'type' => '384055'
                                                              },
                                                       '2' => {
                                                                'name' => 'magbits',
                                                                'type' => '384055'
                                                              }
                                                     },
                                          'Return' => '384090',
                                          'ShortName' => 'randtest_exact',
                                          'Static' => 1
                                        },
                            '385458' => {
                                          'Class' => '384090',
                                          'Const' => 1,
                                          'Header' => undef,
                                          'Line' => '155',
                                          'MnglName' => '_ZNK9exactreal3Arb5equalERKS0_',
                                          'Param' => {
                                                       '0' => {
                                                                'name' => 'this',
                                                                'type' => '5431783'
                                                              },
                                                       '1' => {
                                                                'name' => 'rhs',
                                                                'type' => '387677'
                                                              }
                                                     },
                                          'Return' => '316089',
                                          'ShortName' => 'equal'
                                        },
                            '385589' => {
                                          'Class' => '385512',
                                          'Header' => undef,
                                          'Line' => '38',
                                          'MnglName' => '_ZN9exactreal11IntegerRing10compositumERKS0_S2_',
                                          'Param' => {
                                                       '0' => {
                                                                'name' => 'p1',
                                                                'type' => '430693'
                                                              },
                                                       '1' => {
                                                                'name' => 'p2',
                                                                'type' => '430693'
                                                              }
                                                     },
                                          'Reg' => {
                                                     '0' => 'rdi',
                                                     '1' => 'rsi'
                                                   },
                                          'Return' => '385512',
                                          'ShortName' => 'compositum',
                                          'Static' => 1
                                        },
                            '385700' => {
                                          'Class' => '385512',
                                          'Header' => undef,
                                          'Line' => '53',
                                          'MnglName' => '_ZN9exactreal11IntegerRing4unitERK10__gmp_exprIA1_12__mpz_structS3_E',
                                          'Param' => {
                                                       '0' => {
                                                                'name' => 'x',
                                                                'type' => '430714'
                                                              }
                                                     },
                                          'Return' => '316089',
                                          'ShortName' => 'unit',
                                          'Static' => 1
                                        },
                            '385726' => {
                                          'Class' => '385512',
                                          'Header' => undef,
                                          'Line' => '54',
                                          'MnglName' => '_ZN9exactreal11IntegerRing3arbERK10__gmp_exprIA1_12__mpz_structS3_El',
                                          'Param' => {
                                                       '0' => {
                                                                'name' => 'x',
                                                                'type' => '430714'
                                                              },
                                                       '1' => {
                                                                'name' => 'p2',
                                                                'type' => '314913'
                                                              }
                                                     },
                                          'Reg' => {
                                                     '1' => 'rdx'
                                                   },
                                          'Return' => '384090',
                                          'ShortName' => 'arb',
                                          'Static' => 1
                                        },
                            '385758' => {
                                          'Class' => '385512',
                                          'Header' => undef,
                                          'Line' => '55',
                                          'MnglName' => '_ZN9exactreal11IntegerRing5floorERK10__gmp_exprIA1_12__mpz_structS3_E',
                                          'Param' => {
                                                       '0' => {
                                                                'name' => 'x',
                                                                'type' => '430714'
                                                              }
                                                     },
                                          'Return' => '334954',
                                          'ShortName' => 'floor',
                                          'Static' => 1
                                        },
                            '385784' => {
                                          'Class' => '385512',
                                          'Header' => undef,
                                          'Line' => '56',
                                          'MnglName' => '_ZN9exactreal11IntegerRing8rationalERK10__gmp_exprIA1_12__mpz_structS3_E',
                                          'Param' => {
                                                       '0' => {
                                                                'name' => 'x',
                                                                'type' => '430714'
                                                              }
                                                     },
                                          'Return' => '258366',
                                          'ShortName' => 'rational',
                                          'Static' => 1
                                        },
                            '385924' => {
                                          'Class' => '385848',
                                          'Header' => undef,
                                          'Line' => '37',
                                          'MnglName' => '_ZN9exactreal13RationalField10compositumERKS0_S2_',
                                          'Param' => {
                                                       '0' => {
                                                                'name' => 'p1',
                                                                'type' => '430735'
                                                              },
                                                       '1' => {
                                                                'name' => 'p2',
                                                                'type' => '430735'
                                                              }
                                                     },
                                          'Reg' => {
                                                     '0' => 'rdi',
                                                     '1' => 'rsi'
                                                   },
                                          'Return' => '385848',
                                          'ShortName' => 'compositum',
                                          'Static' => 1
                                        },
                            '386035' => {
                                          'Class' => '385848',
                                          'Header' => undef,
                                          'Line' => '52',
                                          'MnglName' => '_ZN9exactreal13RationalField4unitERK10__gmp_exprIA1_12__mpq_structS3_E',
                                          'Param' => {
                                                       '0' => {
                                                                'name' => 'x',
                                                                'type' => '430756'
                                                              }
                                                     },
                                          'Reg' => {
                                                     '0' => 'rdi'
                                                   },
                                          'Return' => '316089',
                                          'ShortName' => 'unit',
                                          'Static' => 1
                                        },
                            '386061' => {
                                          'Class' => '385848',
                                          'Header' => undef,
                                          'Line' => '53',
                                          'MnglName' => '_ZN9exactreal13RationalField3arbERK10__gmp_exprIA1_12__mpq_structS3_El',
                                          'Param' => {
                                                       '0' => {
                                                                'name' => 'x',
                                                                'type' => '430756'
                                                              },
                                                       '1' => {
                                                                'name' => 'prec',
                                                                'type' => '384055'
                                                              }
                                                     },
                                          'Return' => '384090',
                                          'ShortName' => 'arb',
                                          'Static' => 1
                                        },
                            '386093' => {
                                          'Class' => '385848',
                                          'Header' => undef,
                                          'Line' => '54',
                                          'MnglName' => '_ZN9exactreal13RationalField5floorERK10__gmp_exprIA1_12__mpq_structS3_E',
                                          'Param' => {
                                                       '0' => {
                                                                'name' => 'x',
                                                                'type' => '430756'
                                                              }
                                                     },
                                          'Return' => '334954',
                                          'ShortName' => 'floor',
                                          'Static' => 1
                                        },
                            '386119' => {
                                          'Class' => '385848',
                                          'Header' => undef,
                                          'Line' => '55',
                                          'MnglName' => '_ZN9exactreal13RationalField8rationalERK10__gmp_exprIA1_12__mpq_structS3_E',
                                          'Param' => {
                                                       '0' => {
                                                                'name' => 'x',
                                                                'type' => '430756'
                                                              }
                                                     },
                                          'Return' => '258366',
                                          'ShortName' => 'rational',
                                          'Static' => 1
                                        },
                            '386340' => {
                                          'Class' => '386183',
                                          'Header' => undef,
                                          'Line' => '45',
                                          'MnglName' => '_ZN9exactreal11NumberField10compositumERKS0_S2_',
                                          'Param' => {
                                                       '0' => {
                                                                'name' => 'lhs',
                                                                'type' => '430777'
                                                              },
                                                       '1' => {
                                                                'name' => 'rhs',
                                                                'type' => '430777'
                                                              }
                                                     },
                                          'Return' => '386183',
                                          'ShortName' => 'compositum',
                                          'Static' => 1
                                        },
                            '386373' => {
                                          'Class' => '386183',
                                          'Const' => 1,
                                          'Header' => undef,
                                          'Line' => '47',
                                          'MnglName' => '_ZNK9exactreal11NumberFieldeqERKS0_',
                                          'Param' => {
                                                       '0' => {
                                                                'name' => 'this',
                                                                'type' => '5867065'
                                                              },
                                                       '1' => {
                                                                'name' => 'rhs',
                                                                'type' => '430777'
                                                              }
                                                     },
                                          'Return' => '316089',
                                          'ShortName' => 'operator=='
                                        },
                            '386441' => {
                                          'Class' => '386183',
                                          'Const' => 1,
                                          'Header' => undef,
                                          'Line' => '59',
                                          'MnglName' => '_ZNK9exactreal11NumberField6coerceERKN6eantic15renf_elem_classE',
                                          'Param' => {
                                                       '0' => {
                                                                'name' => 'this',
                                                                'type' => '5867065'
                                                              },
                                                       '1' => {
                                                                'name' => 'x',
                                                                'type' => '430798'
                                                              }
                                                     },
                                          'Return' => '386423',
                                          'ShortName' => 'coerce'
                                        },
                            '386491' => {
                                          'Class' => '386183',
                                          'Header' => undef,
                                          'Line' => '62',
                                          'MnglName' => '_ZN9exactreal11NumberField4unitERKN6eantic15renf_elem_classE',
                                          'Param' => {
                                                       '0' => {
                                                                'name' => 'x',
                                                                'type' => '430798'
                                                              }
                                                     },
                                          'Return' => '316089',
                                          'ShortName' => 'unit',
                                          'Static' => 1
                                        },
                            '386519' => {
                                          'Class' => '386183',
                                          'Header' => undef,
                                          'Line' => '63',
                                          'MnglName' => '_ZN9exactreal11NumberField5floorERKN6eantic15renf_elem_classE',
                                          'Param' => {
                                                       '0' => {
                                                                'name' => 'x',
                                                                'type' => '430798'
                                                              }
                                                     },
                                          'Return' => '334954',
                                          'ShortName' => 'floor',
                                          'Static' => 1
                                        },
                            '386547' => {
                                          'Class' => '386183',
                                          'Header' => undef,
                                          'Line' => '64',
                                          'MnglName' => '_ZN9exactreal11NumberField3arbERKN6eantic15renf_elem_classEl',
                                          'Param' => {
                                                       '0' => {
                                                                'name' => 'x',
                                                                'type' => '430798'
                                                              },
                                                       '1' => {
                                                                'name' => 'prec',
                                                                'type' => '325223'
                                                              }
                                                     },
                                          'Return' => '384090',
                                          'ShortName' => 'arb',
                                          'Static' => 1
                                        },
                            '386580' => {
                                          'Class' => '386183',
                                          'Header' => undef,
                                          'Line' => '65',
                                          'MnglName' => '_ZN9exactreal11NumberField8rationalERKN6eantic15renf_elem_classE',
                                          'Param' => {
                                                       '0' => {
                                                                'name' => 'x',
                                                                'type' => '430798'
                                                              }
                                                     },
                                          'Return' => '258366',
                                          'ShortName' => 'rational',
                                          'Static' => 1
                                        },
                            '386623' => {
                                          'Class' => '386610',
                                          'Header' => undef,
                                          'Line' => '156',
                                          'MnglName' => '_ZN9exactreal16RealNumberCereal4saveERN6cereal17JSONOutputArchiveERKSt10shared_ptrIKNS_10RealNumberEE',
                                          'Param' => {
                                                       '0' => {
                                                                'name' => 'archive',
                                                                'type' => '430813'
                                                              },
                                                       '1' => {
                                                                'name' => 'self',
                                                                'type' => '430819'
                                                              }
                                                     },
                                          'Return' => '1',
                                          'ShortName' => 'save',
                                          'Static' => 1
                                        },
                            '386651' => {
                                          'Class' => '386610',
                                          'Header' => undef,
                                          'Line' => '157',
                                          'MnglName' => '_ZN9exactreal16RealNumberCereal4loadERN6cereal16JSONInputArchiveERSt10shared_ptrIKNS_10RealNumberEE',
                                          'Param' => {
                                                       '0' => {
                                                                'name' => 'archive',
                                                                'type' => '430825'
                                                              },
                                                       '1' => {
                                                                'name' => 'self',
                                                                'type' => '430831'
                                                              }
                                                     },
                                          'Return' => '1',
                                          'ShortName' => 'load',
                                          'Static' => 1
                                        },
                            '387080' => {
                                          'Header' => undef,
                                          'Line' => '106',
                                          'MnglName' => '_ZN9exactreallsERSoRKNS_10RealNumberE',
                                          'NameSpace' => 'exactreal',
                                          'Param' => {
                                                       '0' => {
                                                                'name' => 'os',
                                                                'type' => '438661'
                                                              },
                                                       '1' => {
                                                                'name' => 'self',
                                                                'type' => '438625'
                                                              }
                                                     },
                                          'Return' => '438661',
                                          'ShortName' => 'operator<<'
                                        },
                            '4018820' => {
                                           'Class' => '3113751',
                                           'Constructor' => 1,
                                           'Header' => undef,
                                           'Line' => '127',
                                           'MnglName' => '_ZN9exactreal7ElementINS_11NumberFieldEEC2ERKN6eantic15renf_elem_classE',
                                           'Param' => {
                                                        '0' => {
                                                                 'name' => 'this',
                                                                 'type' => '3140415'
                                                               },
                                                        '1' => {
                                                                 'name' => 'value',
                                                                 'type' => '430798'
                                                               }
                                                      },
                                           'ShortName' => 'Element'
                                         },
                            '4018821' => {
                                           'Class' => '3113751',
                                           'Constructor' => 1,
                                           'Header' => undef,
                                           'Line' => '127',
                                           'MnglName' => '_ZN9exactreal7ElementINS_11NumberFieldEEC1ERKN6eantic15renf_elem_classE',
                                           'Param' => {
                                                        '0' => {
                                                                 'name' => 'this',
                                                                 'type' => '3140415'
                                                               },
                                                        '1' => {
                                                                 'name' => 'value',
                                                                 'type' => '430798'
                                                               }
                                                      },
                                           'ShortName' => 'Element'
                                         },
                            '4028602' => {
                                           'Class' => '3113751',
                                           'Constructor' => 1,
                                           'Header' => undef,
                                           'Line' => '105',
                                           'MnglName' => '_ZN9exactreal7ElementINS_11NumberFieldEEC2ERKSt10shared_ptrIKNS_6ModuleIS1_EEERKSt6vectorIN6eantic15renf_elem_classESaISC_EE',
                                           'Param' => {
                                                        '0' => {
                                                                 'name' => 'this',
                                                                 'type' => '3140415'
                                                               },
                                                        '1' => {
                                                                 'name' => 'parent',
                                                                 'type' => '3140420'
                                                               },
                                                        '2' => {
                                                                 'name' => 'coefficients',
                                                                 'type' => '3140426'
                                                               }
                                                      },
                                           'ShortName' => 'Element'
                                         },
                            '4028603' => {
                                           'Class' => '3113751',
                                           'Constructor' => 1,
                                           'Header' => undef,
                                           'Line' => '105',
                                           'MnglName' => '_ZN9exactreal7ElementINS_11NumberFieldEEC1ERKSt10shared_ptrIKNS_6ModuleIS1_EEERKSt6vectorIN6eantic15renf_elem_classESaISC_EE',
                                           'Param' => {
                                                        '0' => {
                                                                 'name' => 'this',
                                                                 'type' => '3140415'
                                                               },
                                                        '1' => {
                                                                 'name' => 'parent',
                                                                 'type' => '3140420'
                                                               },
                                                        '2' => {
                                                                 'name' => 'coefficients',
                                                                 'type' => '3140426'
                                                               }
                                                      },
                                           'ShortName' => 'Element'
                                         },
                            '4032895' => {
                                           'Class' => '3113751',
                                           'Constructor' => 1,
                                           'Header' => undef,
                                           'Line' => '102',
                                           'MnglName' => '_ZN9exactreal7ElementINS_11NumberFieldEEC2Ev',
                                           'Param' => {
                                                        '0' => {
                                                                 'name' => 'this',
                                                                 'type' => '3140415'
                                                               }
                                                      },
                                           'ShortName' => 'Element'
                                         },
                            '4032896' => {
                                           'Class' => '3113751',
                                           'Constructor' => 1,
                                           'Header' => undef,
                                           'Line' => '102',
                                           'MnglName' => '_ZN9exactreal7ElementINS_11NumberFieldEEC1Ev',
                                           'Param' => {
                                                        '0' => {
                                                                 'name' => 'this',
                                                                 'type' => '3140415'
                                                               }
                                                      },
                                           'ShortName' => 'Element'
                                         },
                            '4064395' => {
                                           'Class' => '3110838',
                                           'Constructor' => 1,
                                           'Header' => undef,
                                           'Line' => '110',
                                           'MnglName' => '_ZN9exactreal7ElementINS_13RationalFieldEEC2ILb1ELb1EEERKNS0_INS_11IntegerRingEEE',
                                           'Param' => {
                                                        '0' => {
                                                                 'name' => 'this',
                                                                 'type' => '3138262'
                                                               },
                                                        '1' => {
                                                                 'name' => 'value',
                                                                 'type' => '3137325'
                                                               }
                                                      },
                                           'ShortName' => 'Element<true>',
                                           'TParam' => {
                                                         '0' => {
                                                                  'key' => 'Enabled',
                                                                  'type' => '316089',
                                                                  'val' => '1'
                                                                }
                                                       }
                                         },
                            '4064396' => {
                                           'Class' => '3110838',
                                           'Constructor' => 1,
                                           'Header' => undef,
                                           'Line' => '110',
                                           'MnglName' => '_ZN9exactreal7ElementINS_13RationalFieldEEC1ILb1ELb1EEERKNS0_INS_11IntegerRingEEE',
                                           'Param' => {
                                                        '0' => {
                                                                 'name' => 'this',
                                                                 'type' => '3138262'
                                                               },
                                                        '1' => {
                                                                 'name' => 'value',
                                                                 'type' => '3137325'
                                                               }
                                                      },
                                           'ShortName' => 'Element<true>',
                                           'TParam' => {
                                                         '0' => {
                                                                  'key' => 'Enabled',
                                                                  'type' => '316089',
                                                                  'val' => '1'
                                                                }
                                                       }
                                         },
                            '4162096' => {
                                           'Class' => '3110838',
                                           'Constructor' => 1,
                                           'Header' => undef,
                                           'Line' => '53',
                                           'MnglName' => '_ZN9exactreal7ElementINS_13RationalFieldEEC2ERK10__gmp_exprIA1_12__mpq_structS5_E',
                                           'Param' => {
                                                        '0' => {
                                                                 'name' => 'this',
                                                                 'type' => '3138262'
                                                               },
                                                        '1' => {
                                                                 'name' => 'value',
                                                                 'type' => '430756'
                                                               }
                                                      },
                                           'ShortName' => 'Element'
                                         },
                            '4162097' => {
                                           'Class' => '3110838',
                                           'Constructor' => 1,
                                           'Header' => undef,
                                           'Line' => '53',
                                           'MnglName' => '_ZN9exactreal7ElementINS_13RationalFieldEEC1ERK10__gmp_exprIA1_12__mpq_structS5_E',
                                           'Param' => {
                                                        '0' => {
                                                                 'name' => 'this',
                                                                 'type' => '3138262'
                                                               },
                                                        '1' => {
                                                                 'name' => 'value',
                                                                 'type' => '430756'
                                                               }
                                                      },
                                           'ShortName' => 'Element'
                                         },
                            '4172035' => {
                                           'Class' => '3110838',
                                           'Constructor' => 1,
                                           'Header' => undef,
                                           'Line' => '105',
                                           'MnglName' => '_ZN9exactreal7ElementINS_13RationalFieldEEC2ERKSt10shared_ptrIKNS_6ModuleIS1_EEERKSt6vectorI10__gmp_exprIA1_12__mpq_structSD_ESaISE_EE',
                                           'Param' => {
                                                        '0' => {
                                                                 'name' => 'this',
                                                                 'type' => '3138262'
                                                               },
                                                        '1' => {
                                                                 'name' => 'parent',
                                                                 'type' => '3138267'
                                                               },
                                                        '2' => {
                                                                 'name' => 'coefficients',
                                                                 'type' => '3125177'
                                                               }
                                                      },
                                           'ShortName' => 'Element'
                                         },
                            '4172036' => {
                                           'Class' => '3110838',
                                           'Constructor' => 1,
                                           'Header' => undef,
                                           'Line' => '105',
                                           'MnglName' => '_ZN9exactreal7ElementINS_13RationalFieldEEC1ERKSt10shared_ptrIKNS_6ModuleIS1_EEERKSt6vectorI10__gmp_exprIA1_12__mpq_structSD_ESaISE_EE',
                                           'Param' => {
                                                        '0' => {
                                                                 'name' => 'this',
                                                                 'type' => '3138262'
                                                               },
                                                        '1' => {
                                                                 'name' => 'parent',
                                                                 'type' => '3138267'
                                                               },
                                                        '2' => {
                                                                 'name' => 'coefficients',
                                                                 'type' => '3125177'
                                                               }
                                                      },
                                           'ShortName' => 'Element'
                                         },
                            '4176457' => {
                                           'Class' => '3110838',
                                           'Constructor' => 1,
                                           'Header' => undef,
                                           'Line' => '102',
                                           'MnglName' => '_ZN9exactreal7ElementINS_13RationalFieldEEC2Ev',
                                           'Param' => {
                                                        '0' => {
                                                                 'name' => 'this',
                                                                 'type' => '3138262'
                                                               }
                                                      },
                                           'ShortName' => 'Element'
                                         },
                            '4176458' => {
                                           'Class' => '3110838',
                                           'Constructor' => 1,
                                           'Header' => undef,
                                           'Line' => '102',
                                           'MnglName' => '_ZN9exactreal7ElementINS_13RationalFieldEEC1Ev',
                                           'Param' => {
                                                        '0' => {
                                                                 'name' => 'this',
                                                                 'type' => '3138262'
                                                               }
                                                      },
                                           'ShortName' => 'Element'
                                         },
                            '4296443' => {
                                           'Class' => '3108453',
                                           'Constructor' => 1,
                                           'Header' => undef,
                                           'Line' => '53',
                                           'MnglName' => '_ZN9exactreal7ElementINS_11IntegerRingEEC2ERK10__gmp_exprIA1_12__mpz_structS5_E',
                                           'Param' => {
                                                        '0' => {
                                                                 'name' => 'this',
                                                                 'type' => '3137291'
                                                               },
                                                        '1' => {
                                                                 'name' => 'value',
                                                                 'type' => '430714'
                                                               }
                                                      },
                                           'ShortName' => 'Element'
                                         },
                            '4296444' => {
                                           'Class' => '3108453',
                                           'Constructor' => 1,
                                           'Header' => undef,
                                           'Line' => '53',
                                           'MnglName' => '_ZN9exactreal7ElementINS_11IntegerRingEEC1ERK10__gmp_exprIA1_12__mpz_structS5_E',
                                           'Param' => {
                                                        '0' => {
                                                                 'name' => 'this',
                                                                 'type' => '3137291'
                                                               },
                                                        '1' => {
                                                                 'name' => 'value',
                                                                 'type' => '430714'
                                                               }
                                                      },
                                           'ShortName' => 'Element'
                                         },
                            '4306328' => {
                                           'Class' => '3108453',
                                           'Constructor' => 1,
                                           'Header' => undef,
                                           'Line' => '105',
                                           'MnglName' => '_ZN9exactreal7ElementINS_11IntegerRingEEC2ERKSt10shared_ptrIKNS_6ModuleIS1_EEERKSt6vectorI10__gmp_exprIA1_12__mpz_structSD_ESaISE_EE',
                                           'Param' => {
                                                        '0' => {
                                                                 'name' => 'this',
                                                                 'type' => '3137291'
                                                               },
                                                        '1' => {
                                                                 'name' => 'parent',
                                                                 'type' => '3137296'
                                                               },
                                                        '2' => {
                                                                 'name' => 'coefficients',
                                                                 'type' => '3125171'
                                                               }
                                                      },
                                           'ShortName' => 'Element'
                                         },
                            '4306329' => {
                                           'Class' => '3108453',
                                           'Constructor' => 1,
                                           'Header' => undef,
                                           'Line' => '105',
                                           'MnglName' => '_ZN9exactreal7ElementINS_11IntegerRingEEC1ERKSt10shared_ptrIKNS_6ModuleIS1_EEERKSt6vectorI10__gmp_exprIA1_12__mpz_structSD_ESaISE_EE',
                                           'Param' => {
                                                        '0' => {
                                                                 'name' => 'this',
                                                                 'type' => '3137291'
                                                               },
                                                        '1' => {
                                                                 'name' => 'parent',
                                                                 'type' => '3137296'
                                                               },
                                                        '2' => {
                                                                 'name' => 'coefficients',
                                                                 'type' => '3125171'
                                                               }
                                                      },
                                           'ShortName' => 'Element'
                                         },
                            '4310734' => {
                                           'Class' => '3108453',
                                           'Constructor' => 1,
                                           'Header' => undef,
                                           'Line' => '102',
                                           'MnglName' => '_ZN9exactreal7ElementINS_11IntegerRingEEC2Ev',
                                           'Param' => {
                                                        '0' => {
                                                                 'name' => 'this',
                                                                 'type' => '3137291'
                                                               }
                                                      },
                                           'ShortName' => 'Element'
                                         },
                            '4310735' => {
                                           'Class' => '3108453',
                                           'Constructor' => 1,
                                           'Header' => undef,
                                           'Line' => '102',
                                           'MnglName' => '_ZN9exactreal7ElementINS_11IntegerRingEEC1Ev',
                                           'Param' => {
                                                        '0' => {
                                                                 'name' => 'this',
                                                                 'type' => '3137291'
                                                               }
                                                      },
                                           'ShortName' => 'Element'
                                         },
                            '4447815' => {
                                           'Class' => '4447802',
                                           'Const' => 1,
                                           'Header' => undef,
                                           'Line' => '69',
                                           'MnglName' => '_ZNKSt4hashIN9exactreal11NumberFieldEEclERKS1_',
                                           'Param' => {
                                                        '0' => {
                                                                 'name' => 'this',
                                                                 'type' => '5867100'
                                                               },
                                                        '1' => {
                                                                 'name' => 'self',
                                                                 'type' => '430777'
                                                               }
                                                      },
                                           'Return' => '18533',
                                           'ShortName' => 'operator()'
                                         },
                            '4678084' => {
                                           'Header' => undef,
                                           'InLine' => 2,
                                           'Line' => '193',
                                           'MnglName' => '_ZN9exactreallsINS_11NumberFieldEEERSoS2_RKNS_6ModuleIT_EE',
                                           'NameSpace' => 'exactreal',
                                           'Param' => {
                                                        '0' => {
                                                                 'name' => 'os',
                                                                 'type' => '438661'
                                                               },
                                                        '1' => {
                                                                 'name' => 'self',
                                                                 'type' => '3150484'
                                                               }
                                                      },
                                           'Return' => '438661',
                                           'ShortName' => 'operator<< <exactreal::NumberField>',
                                           'TParam' => {
                                                         '0' => {
                                                                  'key' => 'R',
                                                                  'type' => '386183'
                                                                }
                                                       }
                                         },
                            '4678122' => {
                                           'Header' => undef,
                                           'InLine' => 2,
                                           'Line' => '193',
                                           'MnglName' => '_ZN9exactreallsINS_13RationalFieldEEERSoS2_RKNS_6ModuleIT_EE',
                                           'NameSpace' => 'exactreal',
                                           'Param' => {
                                                        '0' => {
                                                                 'name' => 'os',
                                                                 'type' => '438661'
                                                               },
                                                        '1' => {
                                                                 'name' => 'self',
                                                                 'type' => '3138770'
                                                               }
                                                      },
                                           'Return' => '438661',
                                           'ShortName' => 'operator<< <exactreal::RationalField>',
                                           'TParam' => {
                                                         '0' => {
                                                                  'key' => 'R',
                                                                  'type' => '385848'
                                                                }
                                                       }
                                         },
                            '4678160' => {
                                           'Header' => undef,
                                           'InLine' => 2,
                                           'Line' => '193',
                                           'MnglName' => '_ZN9exactreallsINS_11IntegerRingEEERSoS2_RKNS_6ModuleIT_EE',
                                           'NameSpace' => 'exactreal',
                                           'Param' => {
                                                        '0' => {
                                                                 'name' => 'os',
                                                                 'type' => '438661'
                                                               },
                                                        '1' => {
                                                                 'name' => 'self',
                                                                 'type' => '3137834'
                                                               }
                                                      },
                                           'Return' => '438661',
                                           'ShortName' => 'operator<< <exactreal::IntegerRing>',
                                           'TParam' => {
                                                         '0' => {
                                                                  'key' => 'R',
                                                                  'type' => '385512'
                                                                }
                                                       }
                                         },
                            '5423856' => {
                                           'Class' => '384090',
                                           'Const' => 1,
                                           'Header' => undef,
                                           'InLine' => 2,
                                           'Line' => '224',
                                           'MnglName' => '_ZNK9exactreal3ArbgeIyLi0EEESt8optionalIbET_',
                                           'Param' => {
                                                        '0' => {
                                                                 'name' => 'this',
                                                                 'type' => '5431783'
                                                               },
                                                        '1' => {
                                                                 'name' => 'rhs',
                                                                 'type' => '957995'
                                                               }
                                                      },
                                           'Return' => '85845',
                                           'ShortName' => 'operator>=<unsigned long long>',
                                           'TParam' => {
                                                         '0' => {
                                                                  'key' => 'Integer',
                                                                  'type' => '315634'
                                                                }
                                                       }
                                         },
                            '5423901' => {
                                           'Class' => '384090',
                                           'Const' => 1,
                                           'Header' => undef,
                                           'InLine' => 2,
                                           'Line' => '224',
                                           'MnglName' => '_ZNK9exactreal3ArbgeIxLi0EEESt8optionalIbET_',
                                           'Param' => {
                                                        '0' => {
                                                                 'name' => 'this',
                                                                 'type' => '5431783'
                                                               },
                                                        '1' => {
                                                                 'name' => 'rhs',
                                                                 'type' => '315596'
                                                               }
                                                      },
                                           'Return' => '85845',
                                           'ShortName' => 'operator>=<long long>',
                                           'TParam' => {
                                                         '0' => {
                                                                  'key' => 'Integer',
                                                                  'type' => '315588'
                                                                }
                                                       }
                                         },
                            '5423946' => {
                                           'Class' => '384090',
                                           'Const' => 1,
                                           'Header' => undef,
                                           'InLine' => 2,
                                           'Line' => '224',
                                           'MnglName' => '_ZNK9exactreal3ArbgeImLi0EEESt8optionalIbET_',
                                           'Param' => {
                                                        '0' => {
                                                                 'name' => 'this',
                                                                 'type' => '5431783'
                                                               },
                                                        '1' => {
                                                                 'name' => 'rhs',
                                                                 'type' => '313104'
                                                               }
                                                      },
                                           'Return' => '85845',
                                           'ShortName' => 'operator>=<unsigned long>',
                                           'TParam' => {
                                                         '0' => {
                                                                  'key' => 'Integer',
                                                                  'type' => '313096'
                                                                }
                                                       }
                                         },
                            '5423991' => {
                                           'Class' => '384090',
                                           'Const' => 1,
                                           'Header' => undef,
                                           'InLine' => 2,
                                           'Line' => '224',
                                           'MnglName' => '_ZNK9exactreal3ArbgeIlLi0EEESt8optionalIbET_',
                                           'Param' => {
                                                        '0' => {
                                                                 'name' => 'this',
                                                                 'type' => '5431783'
                                                               },
                                                        '1' => {
                                                                 'name' => 'rhs',
                                                                 'type' => '314921'
                                                               }
                                                      },
                                           'Return' => '85845',
                                           'ShortName' => 'operator>=<long>',
                                           'TParam' => {
                                                         '0' => {
                                                                  'key' => 'Integer',
                                                                  'type' => '314913'
                                                                }
                                                       }
                                         },
                            '5424036' => {
                                           'Class' => '384090',
                                           'Const' => 1,
                                           'Header' => undef,
                                           'InLine' => 2,
                                           'Line' => '224',
                                           'MnglName' => '_ZNK9exactreal3ArbgeIjLi0EEESt8optionalIbET_',
                                           'Param' => {
                                                        '0' => {
                                                                 'name' => 'this',
                                                                 'type' => '5431783'
                                                               },
                                                        '1' => {
                                                                 'name' => 'rhs',
                                                                 'type' => '313183'
                                                               }
                                                      },
                                           'Return' => '85845',
                                           'ShortName' => 'operator>=<unsigned int>',
                                           'TParam' => {
                                                         '0' => {
                                                                  'key' => 'Integer',
                                                                  'type' => '313175'
                                                                }
                                                       }
                                         },
                            '5424081' => {
                                           'Class' => '384090',
                                           'Const' => 1,
                                           'Header' => undef,
                                           'InLine' => 2,
                                           'Line' => '224',
                                           'MnglName' => '_ZNK9exactreal3ArbgeIiLi0EEESt8optionalIbET_',
                                           'Param' => {
                                                        '0' => {
                                                                 'name' => 'this',
                                                                 'type' => '5431783'
                                                               },
                                                        '1' => {
                                                                 'name' => 'rhs',
                                                                 'type' => '313334'
                                                               }
                                                      },
                                           'Return' => '85845',
                                           'ShortName' => 'operator>=<int>',
                                           'TParam' => {
                                                         '0' => {
                                                                  'key' => 'Integer',
                                                                  'type' => '313326'
                                                                }
                                                       }
                                         },
                            '5424126' => {
                                           'Class' => '384090',
                                           'Const' => 1,
                                           'Header' => undef,
                                           'InLine' => 2,
                                           'Line' => '224',
                                           'MnglName' => '_ZNK9exactreal3ArbgeItLi0EEESt8optionalIbET_',
                                           'Param' => {
                                                        '0' => {
                                                                 'name' => 'this',
                                                                 'type' => '5431783'
                                                               },
                                                        '1' => {
                                                                 'name' => 'rhs',
                                                                 'type' => '1267447'
                                                               }
                                                      },
                                           'Return' => '85845',
                                           'ShortName' => 'operator>=<unsigned short>',
                                           'TParam' => {
                                                         '0' => {
                                                                  'key' => 'Integer',
                                                                  'type' => '313373'
                                                                }
                                                       }
                                         },
                            '5424171' => {
                                           'Class' => '384090',
                                           'Const' => 1,
                                           'Header' => undef,
                                           'InLine' => 2,
                                           'Line' => '224',
                                           'MnglName' => '_ZNK9exactreal3ArbgeIsLi0EEESt8optionalIbET_',
                                           'Param' => {
                                                        '0' => {
                                                                 'name' => 'this',
                                                                 'type' => '5431783'
                                                               },
                                                        '1' => {
                                                                 'name' => 'rhs',
                                                                 'type' => '317818'
                                                               }
                                                      },
                                           'Return' => '85845',
                                           'ShortName' => 'operator>=<short>',
                                           'TParam' => {
                                                         '0' => {
                                                                  'key' => 'Integer',
                                                                  'type' => '317810'
                                                                }
                                                       }
                                         },
                            '5424216' => {
                                           'Class' => '384090',
                                           'Const' => 1,
                                           'Header' => undef,
                                           'InLine' => 2,
                                           'Line' => '221',
                                           'MnglName' => '_ZNK9exactreal3ArbleIyLi0EEESt8optionalIbET_',
                                           'Param' => {
                                                        '0' => {
                                                                 'name' => 'this',
                                                                 'type' => '5431783'
                                                               },
                                                        '1' => {
                                                                 'name' => 'rhs',
                                                                 'type' => '957995'
                                                               }
                                                      },
                                           'Return' => '85845',
                                           'ShortName' => 'operator<=<unsigned long long>',
                                           'TParam' => {
                                                         '0' => {
                                                                  'key' => 'Integer',
                                                                  'type' => '315634'
                                                                }
                                                       }
                                         },
                            '5424261' => {
                                           'Class' => '384090',
                                           'Const' => 1,
                                           'Header' => undef,
                                           'InLine' => 2,
                                           'Line' => '221',
                                           'MnglName' => '_ZNK9exactreal3ArbleIxLi0EEESt8optionalIbET_',
                                           'Param' => {
                                                        '0' => {
                                                                 'name' => 'this',
                                                                 'type' => '5431783'
                                                               },
                                                        '1' => {
                                                                 'name' => 'rhs',
                                                                 'type' => '315596'
                                                               }
                                                      },
                                           'Return' => '85845',
                                           'ShortName' => 'operator<=<long long>',
                                           'TParam' => {
                                                         '0' => {
                                                                  'key' => 'Integer',
                                                                  'type' => '315588'
                                                                }
                                                       }
                                         },
                            '5424306' => {
                                           'Class' => '384090',
                                           'Const' => 1,
                                           'Header' => undef,
                                           'InLine' => 2,
                                           'Line' => '221',
                                           'MnglName' => '_ZNK9exactreal3ArbleImLi0EEESt8optionalIbET_',
                                           'Param' => {
                                                        '0' => {
                                                                 'name' => 'this',
                                                                 'type' => '5431783'
                                                               },
                                                        '1' => {
                                                                 'name' => 'rhs',
                                                                 'type' => '313104'
                                                               }
                                                      },
                                           'Return' => '85845',
                                           'ShortName' => 'operator<=<unsigned long>',
                                           'TParam' => {
                                                         '0' => {
                                                                  'key' => 'Integer',
                                                                  'type' => '313096'
                                                                }
                                                       }
                                         },
                            '5424351' => {
                                           'Class' => '384090',
                                           'Const' => 1,
                                           'Header' => undef,
                                           'InLine' => 2,
                                           'Line' => '221',
                                           'MnglName' => '_ZNK9exactreal3ArbleIlLi0EEESt8optionalIbET_',
                                           'Param' => {
                                                        '0' => {
                                                                 'name' => 'this',
                                                                 'type' => '5431783'
                                                               },
                                                        '1' => {
                                                                 'name' => 'rhs',
                                                                 'type' => '314921'
                                                               }
                                                      },
                                           'Return' => '85845',
                                           'ShortName' => 'operator<=<long>',
                                           'TParam' => {
                                                         '0' => {
                                                                  'key' => 'Integer',
                                                                  'type' => '314913'
                                                                }
                                                       }
                                         },
                            '5424396' => {
                                           'Class' => '384090',
                                           'Const' => 1,
                                           'Header' => undef,
                                           'InLine' => 2,
                                           'Line' => '221',
                                           'MnglName' => '_ZNK9exactreal3ArbleIjLi0EEESt8optionalIbET_',
                                           'Param' => {
                                                        '0' => {
                                                                 'name' => 'this',
                                                                 'type' => '5431783'
                                                               },
                                                        '1' => {
                                                                 'name' => 'rhs',
                                                                 'type' => '313183'
                                                               }
                                                      },
                                           'Return' => '85845',
                                           'ShortName' => 'operator<=<unsigned int>',
                                           'TParam' => {
                                                         '0' => {
                                                                  'key' => 'Integer',
                                                                  'type' => '313175'
                                                                }
                                                       }
                                         },
                            '5424441' => {
                                           'Class' => '384090',
                                           'Const' => 1,
                                           'Header' => undef,
                                           'InLine' => 2,
                                           'Line' => '221',
                                           'MnglName' => '_ZNK9exactreal3ArbleIiLi0EEESt8optionalIbET_',
                                           'Param' => {
                                                        '0' => {
                                                                 'name' => 'this',
                                                                 'type' => '5431783'
                                                               },
                                                        '1' => {
                                                                 'name' => 'rhs',
                                                                 'type' => '313334'
                                                               }
                                                      },
                                           'Return' => '85845',
                                           'ShortName' => 'operator<=<int>',
                                           'TParam' => {
                                                         '0' => {
                                                                  'key' => 'Integer',
                                                                  'type' => '313326'
                                                                }
                                                       }
                                         },
                            '5424486' => {
                                           'Class' => '384090',
                                           'Const' => 1,
                                           'Header' => undef,
                                           'InLine' => 2,
                                           'Line' => '221',
                                           'MnglName' => '_ZNK9exactreal3ArbleItLi0EEESt8optionalIbET_',
                                           'Param' => {
                                                        '0' => {
                                                                 'name' => 'this',
                                                                 'type' => '5431783'
                                                               },
                                                        '1' => {
                                                                 'name' => 'rhs',
                                                                 'type' => '1267447'
                                                               }
                                                      },
                                           'Return' => '85845',
                                           'ShortName' => 'operator<=<unsigned short>',
                                           'TParam' => {
                                                         '0' => {
                                                                  'key' => 'Integer',
                                                                  'type' => '313373'
                                                                }
                                                       }
                                         },
                            '5424531' => {
                                           'Class' => '384090',
                                           'Const' => 1,
                                           'Header' => undef,
                                           'InLine' => 2,
                                           'Line' => '221',
                                           'MnglName' => '_ZNK9exactreal3ArbleIsLi0EEESt8optionalIbET_',
                                           'Param' => {
                                                        '0' => {
                                                                 'name' => 'this',
                                                                 'type' => '5431783'
                                                               },
                                                        '1' => {
                                                                 'name' => 'rhs',
                                                                 'type' => '317818'
                                                               }
                                                      },
                                           'Return' => '85845',
                                           'ShortName' => 'operator<=<short>',
                                           'TParam' => {
                                                         '0' => {
                                                                  'key' => 'Integer',
                                                                  'type' => '317810'
                                                                }
                                                       }
                                         },
                            '5424576' => {
                                           'Class' => '384090',
                                           'Const' => 1,
                                           'Header' => undef,
                                           'InLine' => 2,
                                           'Line' => '218',
                                           'MnglName' => '_ZNK9exactreal3ArbgtIyLi0EEESt8optionalIbET_',
                                           'Param' => {
                                                        '0' => {
                                                                 'name' => 'this',
                                                                 'type' => '5431783'
                                                               },
                                                        '1' => {
                                                                 'name' => 'rhs',
                                                                 'type' => '957995'
                                                               }
                                                      },
                                           'Return' => '85845',
                                           'ShortName' => 'operator><unsigned long long>',
                                           'TParam' => {
                                                         '0' => {
                                                                  'key' => 'Integer',
                                                                  'type' => '315634'
                                                                }
                                                       }
                                         },
                            '5424621' => {
                                           'Class' => '384090',
                                           'Const' => 1,
                                           'Header' => undef,
                                           'InLine' => 2,
                                           'Line' => '218',
                                           'MnglName' => '_ZNK9exactreal3ArbgtIxLi0EEESt8optionalIbET_',
                                           'Param' => {
                                                        '0' => {
                                                                 'name' => 'this',
                                                                 'type' => '5431783'
                                                               },
                                                        '1' => {
                                                                 'name' => 'rhs',
                                                                 'type' => '315596'
                                                               }
                                                      },
                                           'Return' => '85845',
                                           'ShortName' => 'operator><long long>',
                                           'TParam' => {
                                                         '0' => {
                                                                  'key' => 'Integer',
                                                                  'type' => '315588'
                                                                }
                                                       }
                                         },
                            '5424666' => {
                                           'Class' => '384090',
                                           'Const' => 1,
                                           'Header' => undef,
                                           'InLine' => 2,
                                           'Line' => '218',
                                           'MnglName' => '_ZNK9exactreal3ArbgtImLi0EEESt8optionalIbET_',
                                           'Param' => {
                                                        '0' => {
                                                                 'name' => 'this',
                                                                 'type' => '5431783'
                                                               },
                                                        '1' => {
                                                                 'name' => 'rhs',
                                                                 'type' => '313104'
                                                               }
                                                      },
                                           'Return' => '85845',
                                           'ShortName' => 'operator><unsigned long>',
                                           'TParam' => {
                                                         '0' => {
                                                                  'key' => 'Integer',
                                                                  'type' => '313096'
                                                                }
                                                       }
                                         },
                            '5424711' => {
                                           'Class' => '384090',
                                           'Const' => 1,
                                           'Header' => undef,
                                           'InLine' => 2,
                                           'Line' => '218',
                                           'MnglName' => '_ZNK9exactreal3ArbgtIlLi0EEESt8optionalIbET_',
                                           'Param' => {
                                                        '0' => {
                                                                 'name' => 'this',
                                                                 'type' => '5431783'
                                                               },
                                                        '1' => {
                                                                 'name' => 'rhs',
                                                                 'type' => '314921'
                                                               }
                                                      },
                                           'Return' => '85845',
                                           'ShortName' => 'operator><long>',
                                           'TParam' => {
                                                         '0' => {
                                                                  'key' => 'Integer',
                                                                  'type' => '314913'
                                                                }
                                                       }
                                         },
                            '5424756' => {
                                           'Class' => '384090',
                                           'Const' => 1,
                                           'Header' => undef,
                                           'InLine' => 2,
                                           'Line' => '218',
                                           'MnglName' => '_ZNK9exactreal3ArbgtIjLi0EEESt8optionalIbET_',
                                           'Param' => {
                                                        '0' => {
                                                                 'name' => 'this',
                                                                 'type' => '5431783'
                                                               },
                                                        '1' => {
                                                                 'name' => 'rhs',
                                                                 'type' => '313183'
                                                               }
                                                      },
                                           'Return' => '85845',
                                           'ShortName' => 'operator><unsigned int>',
                                           'TParam' => {
                                                         '0' => {
                                                                  'key' => 'Integer',
                                                                  'type' => '313175'
                                                                }
                                                       }
                                         },
                            '5424801' => {
                                           'Class' => '384090',
                                           'Const' => 1,
                                           'Header' => undef,
                                           'InLine' => 2,
                                           'Line' => '218',
                                           'MnglName' => '_ZNK9exactreal3ArbgtIiLi0EEESt8optionalIbET_',
                                           'Param' => {
                                                        '0' => {
                                                                 'name' => 'this',
                                                                 'type' => '5431783'
                                                               },
                                                        '1' => {
                                                                 'name' => 'rhs',
                                                                 'type' => '313334'
                                                               }
                                                      },
                                           'Return' => '85845',
                                           'ShortName' => 'operator><int>',
                                           'TParam' => {
                                                         '0' => {
                                                                  'key' => 'Integer',
                                                                  'type' => '313326'
                                                                }
                                                       }
                                         },
                            '5424846' => {
                                           'Class' => '384090',
                                           'Const' => 1,
                                           'Header' => undef,
                                           'InLine' => 2,
                                           'Line' => '218',
                                           'MnglName' => '_ZNK9exactreal3ArbgtItLi0EEESt8optionalIbET_',
                                           'Param' => {
                                                        '0' => {
                                                                 'name' => 'this',
                                                                 'type' => '5431783'
                                                               },
                                                        '1' => {
                                                                 'name' => 'rhs',
                                                                 'type' => '1267447'
                                                               }
                                                      },
                                           'Return' => '85845',
                                           'ShortName' => 'operator><unsigned short>',
                                           'TParam' => {
                                                         '0' => {
                                                                  'key' => 'Integer',
                                                                  'type' => '313373'
                                                                }
                                                       }
                                         },
                            '5424891' => {
                                           'Class' => '384090',
                                           'Const' => 1,
                                           'Header' => undef,
                                           'InLine' => 2,
                                           'Line' => '218',
                                           'MnglName' => '_ZNK9exactreal3ArbgtIsLi0EEESt8optionalIbET_',
                                           'Param' => {
                                                        '0' => {
                                                                 'name' => 'this',
                                                                 'type' => '5431783'
                                                               },
                                                        '1' => {
                                                                 'name' => 'rhs',
                                                                 'type' => '317818'
                                                               }
                                                      },
                                           'Return' => '85845',
                                           'ShortName' => 'operator><short>',
                                           'TParam' => {
                                                         '0' => {
                                                                  'key' => 'Integer',
                                                                  'type' => '317810'
                                                                }
                                                       }
                                         },
                            '5424936' => {
                                           'Class' => '384090',
                                           'Const' => 1,
                                           'Header' => undef,
                                           'InLine' => 2,
                                           'Line' => '215',
                                           'MnglName' => '_ZNK9exactreal3ArbltIyLi0EEESt8optionalIbET_',
                                           'Param' => {
                                                        '0' => {
                                                                 'name' => 'this',
                                                                 'type' => '5431783'
                                                               },
                                                        '1' => {
                                                                 'name' => 'rhs',
                                                                 'type' => '957995'
                                                               }
                                                      },
                                           'Return' => '85845',
                                           'ShortName' => 'operator< <unsigned long long>',
                                           'TParam' => {
                                                         '0' => {
                                                                  'key' => 'Integer',
                                                                  'type' => '315634'
                                                                }
                                                       }
                                         },
                            '5425026' => {
                                           'Class' => '384090',
                                           'Const' => 1,
                                           'Header' => undef,
                                           'InLine' => 2,
                                           'Line' => '215',
                                           'MnglName' => '_ZNK9exactreal3ArbltImLi0EEESt8optionalIbET_',
                                           'Param' => {
                                                        '0' => {
                                                                 'name' => 'this',
                                                                 'type' => '5431783'
                                                               },
                                                        '1' => {
                                                                 'name' => 'rhs',
                                                                 'type' => '313104'
                                                               }
                                                      },
                                           'Return' => '85845',
                                           'ShortName' => 'operator< <unsigned long>',
                                           'TParam' => {
                                                         '0' => {
                                                                  'key' => 'Integer',
                                                                  'type' => '313096'
                                                                }
                                                       }
                                         },
                            '5425071' => {
                                           'Class' => '384090',
                                           'Const' => 1,
                                           'Header' => undef,
                                           'InLine' => 2,
                                           'Line' => '215',
                                           'MnglName' => '_ZNK9exactreal3ArbltIlLi0EEESt8optionalIbET_',
                                           'Param' => {
                                                        '0' => {
                                                                 'name' => 'this',
                                                                 'type' => '5431783'
                                                               },
                                                        '1' => {
                                                                 'name' => 'rhs',
                                                                 'type' => '314921'
                                                               }
                                                      },
                                           'Return' => '85845',
                                           'ShortName' => 'operator< <long>',
                                           'TParam' => {
                                                         '0' => {
                                                                  'key' => 'Integer',
                                                                  'type' => '314913'
                                                                }
                                                       }
                                         },
                            '5425116' => {
                                           'Class' => '384090',
                                           'Const' => 1,
                                           'Header' => undef,
                                           'InLine' => 2,
                                           'Line' => '215',
                                           'MnglName' => '_ZNK9exactreal3ArbltIjLi0EEESt8optionalIbET_',
                                           'Param' => {
                                                        '0' => {
                                                                 'name' => 'this',
                                                                 'type' => '5431783'
                                                               },
                                                        '1' => {
                                                                 'name' => 'rhs',
                                                                 'type' => '313183'
                                                               }
                                                      },
                                           'Return' => '85845',
                                           'ShortName' => 'operator< <unsigned int>',
                                           'TParam' => {
                                                         '0' => {
                                                                  'key' => 'Integer',
                                                                  'type' => '313175'
                                                                }
                                                       }
                                         },
                            '5425161' => {
                                           'Class' => '384090',
                                           'Const' => 1,
                                           'Header' => undef,
                                           'InLine' => 2,
                                           'Line' => '215',
                                           'MnglName' => '_ZNK9exactreal3ArbltIiLi0EEESt8optionalIbET_',
                                           'Param' => {
                                                        '0' => {
                                                                 'name' => 'this',
                                                                 'type' => '5431783'
                                                               },
                                                        '1' => {
                                                                 'name' => 'rhs',
                                                                 'type' => '313334'
                                                               }
                                                      },
                                           'Return' => '85845',
                                           'ShortName' => 'operator< <int>',
                                           'TParam' => {
                                                         '0' => {
                                                                  'key' => 'Integer',
                                                                  'type' => '313326'
                                                                }
                                                       }
                                         },
                            '5425206' => {
                                           'Class' => '384090',
                                           'Const' => 1,
                                           'Header' => undef,
                                           'InLine' => 2,
                                           'Line' => '215',
                                           'MnglName' => '_ZNK9exactreal3ArbltItLi0EEESt8optionalIbET_',
                                           'Param' => {
                                                        '0' => {
                                                                 'name' => 'this',
                                                                 'type' => '5431783'
                                                               },
                                                        '1' => {
                                                                 'name' => 'rhs',
                                                                 'type' => '1267447'
                                                               }
                                                      },
                                           'Return' => '85845',
                                           'ShortName' => 'operator< <unsigned short>',
                                           'TParam' => {
                                                         '0' => {
                                                                  'key' => 'Integer',
                                                                  'type' => '313373'
                                                                }
                                                       }
                                         },
                            '5425251' => {
                                           'Class' => '384090',
                                           'Const' => 1,
                                           'Header' => undef,
                                           'InLine' => 2,
                                           'Line' => '215',
                                           'MnglName' => '_ZNK9exactreal3ArbltIsLi0EEESt8optionalIbET_',
                                           'Param' => {
                                                        '0' => {
                                                                 'name' => 'this',
                                                                 'type' => '5431783'
                                                               },
                                                        '1' => {
                                                                 'name' => 'rhs',
                                                                 'type' => '317818'
                                                               }
                                                      },
                                           'Return' => '85845',
                                           'ShortName' => 'operator< <short>',
                                           'TParam' => {
                                                         '0' => {
                                                                  'key' => 'Integer',
                                                                  'type' => '317810'
                                                                }
                                                       }
                                         },
                            '5425296' => {
                                           'Class' => '384090',
                                           'Const' => 1,
                                           'Header' => undef,
                                           'InLine' => 2,
                                           'Line' => '230',
                                           'MnglName' => '_ZNK9exactreal3ArbneIyLi0EEESt8optionalIbET_',
                                           'Param' => {
                                                        '0' => {
                                                                 'name' => 'this',
                                                                 'type' => '5431783'
                                                               },
                                                        '1' => {
                                                                 'name' => 'rhs',
                                                                 'type' => '957995'
                                                               }
                                                      },
                                           'Return' => '85845',
                                           'ShortName' => 'operator!=<unsigned long long>',
                                           'TParam' => {
                                                         '0' => {
                                                                  'key' => 'Integer',
                                                                  'type' => '315634'
                                                                }
                                                       }
                                         },
                            '5425341' => {
                                           'Class' => '384090',
                                           'Const' => 1,
                                           'Header' => undef,
                                           'InLine' => 2,
                                           'Line' => '230',
                                           'MnglName' => '_ZNK9exactreal3ArbneIxLi0EEESt8optionalIbET_',
                                           'Param' => {
                                                        '0' => {
                                                                 'name' => 'this',
                                                                 'type' => '5431783'
                                                               },
                                                        '1' => {
                                                                 'name' => 'rhs',
                                                                 'type' => '315596'
                                                               }
                                                      },
                                           'Return' => '85845',
                                           'ShortName' => 'operator!=<long long>',
                                           'TParam' => {
                                                         '0' => {
                                                                  'key' => 'Integer',
                                                                  'type' => '315588'
                                                                }
                                                       }
                                         },
                            '5425386' => {
                                           'Class' => '384090',
                                           'Const' => 1,
                                           'Header' => undef,
                                           'InLine' => 2,
                                           'Line' => '230',
                                           'MnglName' => '_ZNK9exactreal3ArbneImLi0EEESt8optionalIbET_',
                                           'Param' => {
                                                        '0' => {
                                                                 'name' => 'this',
                                                                 'type' => '5431783'
                                                               },
                                                        '1' => {
                                                                 'name' => 'rhs',
                                                                 'type' => '313104'
                                                               }
                                                      },
                                           'Return' => '85845',
                                           'ShortName' => 'operator!=<unsigned long>',
                                           'TParam' => {
                                                         '0' => {
                                                                  'key' => 'Integer',
                                                                  'type' => '313096'
                                                                }
                                                       }
                                         },
                            '5425431' => {
                                           'Class' => '384090',
                                           'Const' => 1,
                                           'Header' => undef,
                                           'InLine' => 2,
                                           'Line' => '230',
                                           'MnglName' => '_ZNK9exactreal3ArbneIlLi0EEESt8optionalIbET_',
                                           'Param' => {
                                                        '0' => {
                                                                 'name' => 'this',
                                                                 'type' => '5431783'
                                                               },
                                                        '1' => {
                                                                 'name' => 'rhs',
                                                                 'type' => '314921'
                                                               }
                                                      },
                                           'Return' => '85845',
                                           'ShortName' => 'operator!=<long>',
                                           'TParam' => {
                                                         '0' => {
                                                                  'key' => 'Integer',
                                                                  'type' => '314913'
                                                                }
                                                       }
                                         },
                            '5425476' => {
                                           'Class' => '384090',
                                           'Const' => 1,
                                           'Header' => undef,
                                           'InLine' => 2,
                                           'Line' => '230',
                                           'MnglName' => '_ZNK9exactreal3ArbneIjLi0EEESt8optionalIbET_',
                                           'Param' => {
                                                        '0' => {
                                                                 'name' => 'this',
                                                                 'type' => '5431783'
                                                               },
                                                        '1' => {
                                                                 'name' => 'rhs',
                                                                 'type' => '313183'
                                                               }
                                                      },
                                           'Return' => '85845',
                                           'ShortName' => 'operator!=<unsigned int>',
                                           'TParam' => {
                                                         '0' => {
                                                                  'key' => 'Integer',
                                                                  'type' => '313175'
                                                                }
                                                       }
                                         },
                            '5425566' => {
                                           'Class' => '384090',
                                           'Const' => 1,
                                           'Header' => undef,
                                           'InLine' => 2,
                                           'Line' => '230',
                                           'MnglName' => '_ZNK9exactreal3ArbneItLi0EEESt8optionalIbET_',
                                           'Param' => {
                                                        '0' => {
                                                                 'name' => 'this',
                                                                 'type' => '5431783'
                                                               },
                                                        '1' => {
                                                                 'name' => 'rhs',
                                                                 'type' => '1267447'
                                                               }
                                                      },
                                           'Return' => '85845',
                                           'ShortName' => 'operator!=<unsigned short>',
                                           'TParam' => {
                                                         '0' => {
                                                                  'key' => 'Integer',
                                                                  'type' => '313373'
                                                                }
                                                       }
                                         },
                            '5425611' => {
                                           'Class' => '384090',
                                           'Const' => 1,
                                           'Header' => undef,
                                           'InLine' => 2,
                                           'Line' => '230',
                                           'MnglName' => '_ZNK9exactreal3ArbneIsLi0EEESt8optionalIbET_',
                                           'Param' => {
                                                        '0' => {
                                                                 'name' => 'this',
                                                                 'type' => '5431783'
                                                               },
                                                        '1' => {
                                                                 'name' => 'rhs',
                                                                 'type' => '317818'
                                                               }
                                                      },
                                           'Return' => '85845',
                                           'ShortName' => 'operator!=<short>',
                                           'TParam' => {
                                                         '0' => {
                                                                  'key' => 'Integer',
                                                                  'type' => '317810'
                                                                }
                                                       }
                                         },
                            '5425656' => {
                                           'Class' => '384090',
                                           'Const' => 1,
                                           'Header' => undef,
                                           'InLine' => 2,
                                           'Line' => '227',
                                           'MnglName' => '_ZNK9exactreal3ArbeqIyLi0EEESt8optionalIbET_',
                                           'Param' => {
                                                        '0' => {
                                                                 'name' => 'this',
                                                                 'type' => '5431783'
                                                               },
                                                        '1' => {
                                                                 'name' => 'rhs',
                                                                 'type' => '957995'
                                                               }
                                                      },
                                           'Return' => '85845',
                                           'ShortName' => 'operator==<unsigned long long>',
                                           'TParam' => {
                                                         '0' => {
                                                                  'key' => 'Integer',
                                                                  'type' => '315634'
                                                                }
                                                       }
                                         },
                            '5425701' => {
                                           'Class' => '384090',
                                           'Const' => 1,
                                           'Header' => undef,
                                           'InLine' => 2,
                                           'Line' => '227',
                                           'MnglName' => '_ZNK9exactreal3ArbeqIxLi0EEESt8optionalIbET_',
                                           'Param' => {
                                                        '0' => {
                                                                 'name' => 'this',
                                                                 'type' => '5431783'
                                                               },
                                                        '1' => {
                                                                 'name' => 'rhs',
                                                                 'type' => '315596'
                                                               }
                                                      },
                                           'Return' => '85845',
                                           'ShortName' => 'operator==<long long>',
                                           'TParam' => {
                                                         '0' => {
                                                                  'key' => 'Integer',
                                                                  'type' => '315588'
                                                                }
                                                       }
                                         },
                            '5425746' => {
                                           'Class' => '384090',
                                           'Const' => 1,
                                           'Header' => undef,
                                           'InLine' => 2,
                                           'Line' => '227',
                                           'MnglName' => '_ZNK9exactreal3ArbeqImLi0EEESt8optionalIbET_',
                                           'Param' => {
                                                        '0' => {
                                                                 'name' => 'this',
                                                                 'type' => '5431783'
                                                               },
                                                        '1' => {
                                                                 'name' => 'rhs',
                                                                 'type' => '313104'
                                                               }
                                                      },
                                           'Return' => '85845',
                                           'ShortName' => 'operator==<unsigned long>',
                                           'TParam' => {
                                                         '0' => {
                                                                  'key' => 'Integer',
                                                                  'type' => '313096'
                                                                }
                                                       }
                                         },
                            '5425791' => {
                                           'Class' => '384090',
                                           'Const' => 1,
                                           'Header' => undef,
                                           'InLine' => 2,
                                           'Line' => '227',
                                           'MnglName' => '_ZNK9exactreal3ArbeqIlLi0EEESt8optionalIbET_',
                                           'Param' => {
                                                        '0' => {
                                                                 'name' => 'this',
                                                                 'type' => '5431783'
                                                               },
                                                        '1' => {
                                                                 'name' => 'rhs',
                                                                 'type' => '314921'
                                                               }
                                                      },
                                           'Return' => '85845',
                                           'ShortName' => 'operator==<long>',
                                           'TParam' => {
                                                         '0' => {
                                                                  'key' => 'Integer',
                                                                  'type' => '314913'
                                                                }
                                                       }
                                         },
                            '5425836' => {
                                           'Class' => '384090',
                                           'Const' => 1,
                                           'Header' => undef,
                                           'InLine' => 2,
                                           'Line' => '227',
                                           'MnglName' => '_ZNK9exactreal3ArbeqIjLi0EEESt8optionalIbET_',
                                           'Param' => {
                                                        '0' => {
                                                                 'name' => 'this',
                                                                 'type' => '5431783'
                                                               },
                                                        '1' => {
                                                                 'name' => 'rhs',
                                                                 'type' => '313183'
                                                               }
                                                      },
                                           'Return' => '85845',
                                           'ShortName' => 'operator==<unsigned int>',
                                           'TParam' => {
                                                         '0' => {
                                                                  'key' => 'Integer',
                                                                  'type' => '313175'
                                                                }
                                                       }
                                         },
                            '5425881' => {
                                           'Class' => '384090',
                                           'Const' => 1,
                                           'Header' => undef,
                                           'InLine' => 2,
                                           'Line' => '227',
                                           'MnglName' => '_ZNK9exactreal3ArbeqIiLi0EEESt8optionalIbET_',
                                           'Param' => {
                                                        '0' => {
                                                                 'name' => 'this',
                                                                 'type' => '5431783'
                                                               },
                                                        '1' => {
                                                                 'name' => 'rhs',
                                                                 'type' => '313334'
                                                               }
                                                      },
                                           'Return' => '85845',
                                           'ShortName' => 'operator==<int>',
                                           'TParam' => {
                                                         '0' => {
                                                                  'key' => 'Integer',
                                                                  'type' => '313326'
                                                                }
                                                       }
                                         },
                            '5425926' => {
                                           'Class' => '384090',
                                           'Const' => 1,
                                           'Header' => undef,
                                           'InLine' => 2,
                                           'Line' => '227',
                                           'MnglName' => '_ZNK9exactreal3ArbeqItLi0EEESt8optionalIbET_',
                                           'Param' => {
                                                        '0' => {
                                                                 'name' => 'this',
                                                                 'type' => '5431783'
                                                               },
                                                        '1' => {
                                                                 'name' => 'rhs',
                                                                 'type' => '1267447'
                                                               }
                                                      },
                                           'Return' => '85845',
                                           'ShortName' => 'operator==<unsigned short>',
                                           'TParam' => {
                                                         '0' => {
                                                                  'key' => 'Integer',
                                                                  'type' => '313373'
                                                                }
                                                       }
                                         },
                            '5425971' => {
                                           'Class' => '384090',
                                           'Const' => 1,
                                           'Header' => undef,
                                           'InLine' => 2,
                                           'Line' => '227',
                                           'MnglName' => '_ZNK9exactreal3ArbeqIsLi0EEESt8optionalIbET_',
                                           'Param' => {
                                                        '0' => {
                                                                 'name' => 'this',
                                                                 'type' => '5431783'
                                                               },
                                                        '1' => {
                                                                 'name' => 'rhs',
                                                                 'type' => '317818'
                                                               }
                                                      },
                                           'Return' => '85845',
                                           'ShortName' => 'operator==<short>',
                                           'TParam' => {
                                                         '0' => {
                                                                  'key' => 'Integer',
                                                                  'type' => '317810'
                                                                }
                                                       }
                                         },
                            '5426016' => {
                                           'Class' => '384090',
                                           'Header' => undef,
                                           'InLine' => 2,
                                           'Line' => '273',
                                           'MnglName' => '_ZN9exactreal3ArbaSIyLi0EEERS0_T_',
                                           'Param' => {
                                                        '0' => {
                                                                 'name' => 'this',
                                                                 'type' => '3126642'
                                                               },
                                                        '1' => {
                                                                 'name' => 'rhs',
                                                                 'type' => '315634'
                                                               }
                                                      },
                                           'Return' => '392320',
                                           'ShortName' => 'operator=<unsigned long long>',
                                           'TParam' => {
                                                         '0' => {
                                                                  'key' => 'Integer',
                                                                  'type' => '315634'
                                                                }
                                                       }
                                         },
                            '5426062' => {
                                           'Class' => '384090',
                                           'Header' => undef,
                                           'InLine' => 2,
                                           'Line' => '273',
                                           'MnglName' => '_ZN9exactreal3ArbaSIxLi0EEERS0_T_',
                                           'Param' => {
                                                        '0' => {
                                                                 'name' => 'this',
                                                                 'type' => '3126642'
                                                               },
                                                        '1' => {
                                                                 'name' => 'rhs',
                                                                 'type' => '315588'
                                                               }
                                                      },
                                           'Return' => '392320',
                                           'ShortName' => 'operator=<long long>',
                                           'TParam' => {
                                                         '0' => {
                                                                  'key' => 'Integer',
                                                                  'type' => '315588'
                                                                }
                                                       }
                                         },
                            '5426108' => {
                                           'Class' => '384090',
                                           'Header' => undef,
                                           'InLine' => 2,
                                           'Line' => '273',
                                           'MnglName' => '_ZN9exactreal3ArbaSImLi0EEERS0_T_',
                                           'Param' => {
                                                        '0' => {
                                                                 'name' => 'this',
                                                                 'type' => '3126642'
                                                               },
                                                        '1' => {
                                                                 'name' => 'rhs',
                                                                 'type' => '313096'
                                                               }
                                                      },
                                           'Return' => '392320',
                                           'ShortName' => 'operator=<unsigned long>',
                                           'TParam' => {
                                                         '0' => {
                                                                  'key' => 'Integer',
                                                                  'type' => '313096'
                                                                }
                                                       }
                                         },
                            '5426154' => {
                                           'Class' => '384090',
                                           'Header' => undef,
                                           'InLine' => 2,
                                           'Line' => '273',
                                           'MnglName' => '_ZN9exactreal3ArbaSIlLi0EEERS0_T_',
                                           'Param' => {
                                                        '0' => {
                                                                 'name' => 'this',
                                                                 'type' => '3126642'
                                                               },
                                                        '1' => {
                                                                 'name' => 'rhs',
                                                                 'type' => '314913'
                                                               }
                                                      },
                                           'Return' => '392320',
                                           'ShortName' => 'operator=<long>',
                                           'TParam' => {
                                                         '0' => {
                                                                  'key' => 'Integer',
                                                                  'type' => '314913'
                                                                }
                                                       }
                                         },
                            '5426200' => {
                                           'Class' => '384090',
                                           'Header' => undef,
                                           'InLine' => 2,
                                           'Line' => '273',
                                           'MnglName' => '_ZN9exactreal3ArbaSIjLi0EEERS0_T_',
                                           'Param' => {
                                                        '0' => {
                                                                 'name' => 'this',
                                                                 'type' => '3126642'
                                                               },
                                                        '1' => {
                                                                 'name' => 'rhs',
                                                                 'type' => '313175'
                                                               }
                                                      },
                                           'Return' => '392320',
                                           'ShortName' => 'operator=<unsigned int>',
                                           'TParam' => {
                                                         '0' => {
                                                                  'key' => 'Integer',
                                                                  'type' => '313175'
                                                                }
                                                       }
                                         },
                            '5426246' => {
                                           'Class' => '384090',
                                           'Header' => undef,
                                           'InLine' => 2,
                                           'Line' => '273',
                                           'MnglName' => '_ZN9exactreal3ArbaSIiLi0EEERS0_T_',
                                           'Param' => {
                                                        '0' => {
                                                                 'name' => 'this',
                                                                 'type' => '3126642'
                                                               },
                                                        '1' => {
                                                                 'name' => 'rhs',
                                                                 'type' => '313326'
                                                               }
                                                      },
                                           'Return' => '392320',
                                           'ShortName' => 'operator=<int>',
                                           'TParam' => {
                                                         '0' => {
                                                                  'key' => 'Integer',
                                                                  'type' => '313326'
                                                                }
                                                       }
                                         },
                            '5426292' => {
                                           'Class' => '384090',
                                           'Header' => undef,
                                           'InLine' => 2,
                                           'Line' => '273',
                                           'MnglName' => '_ZN9exactreal3ArbaSItLi0EEERS0_T_',
                                           'Param' => {
                                                        '0' => {
                                                                 'name' => 'this',
                                                                 'type' => '3126642'
                                                               },
                                                        '1' => {
                                                                 'name' => 'rhs',
                                                                 'type' => '313373'
                                                               }
                                                      },
                                           'Return' => '392320',
                                           'ShortName' => 'operator=<unsigned short>',
                                           'TParam' => {
                                                         '0' => {
                                                                  'key' => 'Integer',
                                                                  'type' => '313373'
                                                                }
                                                       }
                                         },
                            '5426338' => {
                                           'Class' => '384090',
                                           'Header' => undef,
                                           'InLine' => 2,
                                           'Line' => '273',
                                           'MnglName' => '_ZN9exactreal3ArbaSIsLi0EEERS0_T_',
                                           'Param' => {
                                                        '0' => {
                                                                 'name' => 'this',
                                                                 'type' => '3126642'
                                                               },
                                                        '1' => {
                                                                 'name' => 'rhs',
                                                                 'type' => '317810'
                                                               }
                                                      },
                                           'Return' => '392320',
                                           'ShortName' => 'operator=<short>',
                                           'TParam' => {
                                                         '0' => {
                                                                  'key' => 'Integer',
                                                                  'type' => '317810'
                                                                }
                                                       }
                                         },
                            '5427034' => {
                                           'Header' => undef,
                                           'Line' => '301',
                                           'MnglName' => '_ZN9exactreallsERSoRKNS_3ArbE',
                                           'NameSpace' => 'exactreal',
                                           'Param' => {
                                                        '0' => {
                                                                 'name' => 'os',
                                                                 'type' => '438661'
                                                               },
                                                        '1' => {
                                                                 'name' => 'self',
                                                                 'type' => '387677'
                                                               }
                                                      },
                                           'Return' => '438661',
                                           'ShortName' => 'operator<<'
                                         },
                            '5470096' => {
                                           'Class' => '384090',
                                           'Constructor' => 1,
                                           'Header' => undef,
                                           'Line' => '58',
                                           'MnglName' => '_ZN9exactreal3ArbC2IyLi0EEET_',
                                           'Param' => {
                                                        '0' => {
                                                                 'name' => 'this',
                                                                 'type' => '3126642'
                                                               },
                                                        '1' => {
                                                                 'name' => 'x',
                                                                 'type' => '957995'
                                                               }
                                                      },
                                           'ShortName' => 'Arb<unsigned long long>',
                                           'TParam' => {
                                                         '0' => {
                                                                  'key' => 'Integer',
                                                                  'type' => '315634'
                                                                }
                                                       }
                                         },
                            '5470097' => {
                                           'Class' => '384090',
                                           'Constructor' => 1,
                                           'Header' => undef,
                                           'Line' => '58',
                                           'MnglName' => '_ZN9exactreal3ArbC1IyLi0EEET_',
                                           'Param' => {
                                                        '0' => {
                                                                 'name' => 'this',
                                                                 'type' => '3126642'
                                                               },
                                                        '1' => {
                                                                 'name' => 'x',
                                                                 'type' => '957995'
                                                               }
                                                      },
                                           'ShortName' => 'Arb<unsigned long long>',
                                           'TParam' => {
                                                         '0' => {
                                                                  'key' => 'Integer',
                                                                  'type' => '315634'
                                                                }
                                                       }
                                         },
                            '5470274' => {
                                           'Class' => '384090',
                                           'Constructor' => 1,
                                           'Header' => undef,
                                           'Line' => '58',
                                           'MnglName' => '_ZN9exactreal3ArbC2IxLi0EEET_',
                                           'Param' => {
                                                        '0' => {
                                                                 'name' => 'this',
                                                                 'type' => '3126642'
                                                               },
                                                        '1' => {
                                                                 'name' => 'x',
                                                                 'type' => '315596'
                                                               }
                                                      },
                                           'ShortName' => 'Arb<long long>',
                                           'TParam' => {
                                                         '0' => {
                                                                  'key' => 'Integer',
                                                                  'type' => '315588'
                                                                }
                                                       }
                                         },
                            '5470275' => {
                                           'Class' => '384090',
                                           'Constructor' => 1,
                                           'Header' => undef,
                                           'Line' => '58',
                                           'MnglName' => '_ZN9exactreal3ArbC1IxLi0EEET_',
                                           'Param' => {
                                                        '0' => {
                                                                 'name' => 'this',
                                                                 'type' => '3126642'
                                                               },
                                                        '1' => {
                                                                 'name' => 'x',
                                                                 'type' => '315596'
                                                               }
                                                      },
                                           'ShortName' => 'Arb<long long>',
                                           'TParam' => {
                                                         '0' => {
                                                                  'key' => 'Integer',
                                                                  'type' => '315588'
                                                                }
                                                       }
                                         },
                            '5470452' => {
                                           'Class' => '384090',
                                           'Constructor' => 1,
                                           'Header' => undef,
                                           'Line' => '58',
                                           'MnglName' => '_ZN9exactreal3ArbC2ImLi0EEET_',
                                           'Param' => {
                                                        '0' => {
                                                                 'name' => 'this',
                                                                 'type' => '3126642'
                                                               },
                                                        '1' => {
                                                                 'name' => 'x',
                                                                 'type' => '313104'
                                                               }
                                                      },
                                           'ShortName' => 'Arb<unsigned long>',
                                           'TParam' => {
                                                         '0' => {
                                                                  'key' => 'Integer',
                                                                  'type' => '313096'
                                                                }
                                                       }
                                         },
                            '5470453' => {
                                           'Class' => '384090',
                                           'Constructor' => 1,
                                           'Header' => undef,
                                           'Line' => '58',
                                           'MnglName' => '_ZN9exactreal3ArbC1ImLi0EEET_',
                                           'Param' => {
                                                        '0' => {
                                                                 'name' => 'this',
                                                                 'type' => '3126642'
                                                               },
                                                        '1' => {
                                                                 'name' => 'x',
                                                                 'type' => '313104'
                                                               }
                                                      },
                                           'ShortName' => 'Arb<unsigned long>',
                                           'TParam' => {
                                                         '0' => {
                                                                  'key' => 'Integer',
                                                                  'type' => '313096'
                                                                }
                                                       }
                                         },
                            '5470630' => {
                                           'Class' => '384090',
                                           'Constructor' => 1,
                                           'Header' => undef,
                                           'Line' => '58',
                                           'MnglName' => '_ZN9exactreal3ArbC2IlLi0EEET_',
                                           'Param' => {
                                                        '0' => {
                                                                 'name' => 'this',
                                                                 'type' => '3126642'
                                                               },
                                                        '1' => {
                                                                 'name' => 'x',
                                                                 'type' => '314921'
                                                               }
                                                      },
                                           'ShortName' => 'Arb<long>',
                                           'TParam' => {
                                                         '0' => {
                                                                  'key' => 'Integer',
                                                                  'type' => '314913'
                                                                }
                                                       }
                                         },
                            '5470631' => {
                                           'Class' => '384090',
                                           'Constructor' => 1,
                                           'Header' => undef,
                                           'Line' => '58',
                                           'MnglName' => '_ZN9exactreal3ArbC1IlLi0EEET_',
                                           'Param' => {
                                                        '0' => {
                                                                 'name' => 'this',
                                                                 'type' => '3126642'
                                                               },
                                                        '1' => {
                                                                 'name' => 'x',
                                                                 'type' => '314921'
                                                               }
                                                      },
                                           'ShortName' => 'Arb<long>',
                                           'TParam' => {
                                                         '0' => {
                                                                  'key' => 'Integer',
                                                                  'type' => '314913'
                                                                }
                                                       }
                                         },
                            '5470808' => {
                                           'Class' => '384090',
                                           'Constructor' => 1,
                                           'Header' => undef,
                                           'Line' => '58',
                                           'MnglName' => '_ZN9exactreal3ArbC2IjLi0EEET_',
                                           'Param' => {
                                                        '0' => {
                                                                 'name' => 'this',
                                                                 'type' => '3126642'
                                                               },
                                                        '1' => {
                                                                 'name' => 'x',
                                                                 'type' => '313183'
                                                               }
                                                      },
                                           'ShortName' => 'Arb<unsigned int>',
                                           'TParam' => {
                                                         '0' => {
                                                                  'key' => 'Integer',
                                                                  'type' => '313175'
                                                                }
                                                       }
                                         },
                            '5470809' => {
                                           'Class' => '384090',
                                           'Constructor' => 1,
                                           'Header' => undef,
                                           'Line' => '58',
                                           'MnglName' => '_ZN9exactreal3ArbC1IjLi0EEET_',
                                           'Param' => {
                                                        '0' => {
                                                                 'name' => 'this',
                                                                 'type' => '3126642'
                                                               },
                                                        '1' => {
                                                                 'name' => 'x',
                                                                 'type' => '313183'
                                                               }
                                                      },
                                           'ShortName' => 'Arb<unsigned int>',
                                           'TParam' => {
                                                         '0' => {
                                                                  'key' => 'Integer',
                                                                  'type' => '313175'
                                                                }
                                                       }
                                         },
                            '5470986' => {
                                           'Class' => '384090',
                                           'Constructor' => 1,
                                           'Header' => undef,
                                           'Line' => '58',
                                           'MnglName' => '_ZN9exactreal3ArbC2IiLi0EEET_',
                                           'Param' => {
                                                        '0' => {
                                                                 'name' => 'this',
                                                                 'type' => '3126642'
                                                               },
                                                        '1' => {
                                                                 'name' => 'x',
                                                                 'type' => '313334'
                                                               }
                                                      },
                                           'ShortName' => 'Arb<int>',
                                           'TParam' => {
                                                         '0' => {
                                                                  'key' => 'Integer',
                                                                  'type' => '313326'
                                                                }
                                                       }
                                         },
                            '5470987' => {
                                           'Class' => '384090',
                                           'Constructor' => 1,
                                           'Header' => undef,
                                           'Line' => '58',
                                           'MnglName' => '_ZN9exactreal3ArbC1IiLi0EEET_',
                                           'Param' => {
                                                        '0' => {
                                                                 'name' => 'this',
                                                                 'type' => '3126642'
                                                               },
                                                        '1' => {
                                                                 'name' => 'x',
                                                                 'type' => '313334'
                                                               }
                                                      },
                                           'ShortName' => 'Arb<int>',
                                           'TParam' => {
                                                         '0' => {
                                                                  'key' => 'Integer',
                                                                  'type' => '313326'
                                                                }
                                                       }
                                         },
                            '5471164' => {
                                           'Class' => '384090',
                                           'Constructor' => 1,
                                           'Header' => undef,
                                           'Line' => '58',
                                           'MnglName' => '_ZN9exactreal3ArbC2ItLi0EEET_',
                                           'Param' => {
                                                        '0' => {
                                                                 'name' => 'this',
                                                                 'type' => '3126642'
                                                               },
                                                        '1' => {
                                                                 'name' => 'x',
                                                                 'type' => '1267447'
                                                               }
                                                      },
                                           'ShortName' => 'Arb<unsigned short>',
                                           'TParam' => {
                                                         '0' => {
                                                                  'key' => 'Integer',
                                                                  'type' => '313373'
                                                                }
                                                       }
                                         },
                            '5471165' => {
                                           'Class' => '384090',
                                           'Constructor' => 1,
                                           'Header' => undef,
                                           'Line' => '58',
                                           'MnglName' => '_ZN9exactreal3ArbC1ItLi0EEET_',
                                           'Param' => {
                                                        '0' => {
                                                                 'name' => 'this',
                                                                 'type' => '3126642'
                                                               },
                                                        '1' => {
                                                                 'name' => 'x',
                                                                 'type' => '1267447'
                                                               }
                                                      },
                                           'ShortName' => 'Arb<unsigned short>',
                                           'TParam' => {
                                                         '0' => {
                                                                  'key' => 'Integer',
                                                                  'type' => '313373'
                                                                }
                                                       }
                                         },
                            '5471346' => {
                                           'Class' => '384090',
                                           'Constructor' => 1,
                                           'Header' => undef,
                                           'Line' => '58',
                                           'MnglName' => '_ZN9exactreal3ArbC2IsLi0EEET_',
                                           'Param' => {
                                                        '0' => {
                                                                 'name' => 'this',
                                                                 'type' => '3126642'
                                                               },
                                                        '1' => {
                                                                 'name' => 'x',
                                                                 'type' => '317818'
                                                               }
                                                      },
                                           'ShortName' => 'Arb<short>',
                                           'TParam' => {
                                                         '0' => {
                                                                  'key' => 'Integer',
                                                                  'type' => '317810'
                                                                }
                                                       }
                                         },
                            '5471347' => {
                                           'Class' => '384090',
                                           'Constructor' => 1,
                                           'Header' => undef,
                                           'Line' => '58',
                                           'MnglName' => '_ZN9exactreal3ArbC1IsLi0EEET_',
                                           'Param' => {
                                                        '0' => {
                                                                 'name' => 'this',
                                                                 'type' => '3126642'
                                                               },
                                                        '1' => {
                                                                 'name' => 'x',
                                                                 'type' => '317818'
                                                               }
                                                      },
                                           'ShortName' => 'Arb<short>',
                                           'TParam' => {
                                                         '0' => {
                                                                  'key' => 'Integer',
                                                                  'type' => '317810'
                                                                }
                                                       }
                                         },
                            '5516979' => {
                                           'Class' => '384090',
                                           'Destructor' => 1,
                                           'Header' => undef,
                                           'Line' => '84',
                                           'MnglName' => '_ZN9exactreal3ArbD2Ev',
                                           'Param' => {
                                                        '0' => {
                                                                 'name' => 'this',
                                                                 'type' => '3126642'
                                                               }
                                                      },
                                           'ShortName' => 'Arb'
                                         },
                            '5517117' => {
                                           'Class' => '384090',
                                           'Constructor' => 1,
                                           'Header' => undef,
                                           'Line' => '77',
                                           'MnglName' => '_ZN9exactreal3ArbC2ERKN6eantic15renf_elem_classEl',
                                           'Param' => {
                                                        '0' => {
                                                                 'name' => 'this',
                                                                 'type' => '3126642'
                                                               },
                                                        '1' => {
                                                                 'name' => 'renf',
                                                                 'type' => '387695'
                                                               },
                                                        '2' => {
                                                                 'name' => 'precision',
                                                                 'type' => '5371088'
                                                               }
                                                      },
                                           'ShortName' => 'Arb'
                                         },
                            '5517118' => {
                                           'Class' => '384090',
                                           'Constructor' => 1,
                                           'Header' => undef,
                                           'Line' => '77',
                                           'MnglName' => '_ZN9exactreal3ArbC1ERKN6eantic15renf_elem_classEl',
                                           'Param' => {
                                                        '0' => {
                                                                 'name' => 'this',
                                                                 'type' => '3126642'
                                                               },
                                                        '1' => {
                                                                 'name' => 'renf',
                                                                 'type' => '387695'
                                                               },
                                                        '2' => {
                                                                 'name' => 'precision',
                                                                 'type' => '5371088'
                                                               }
                                                      },
                                           'ShortName' => 'Arb'
                                         },
                            '5517685' => {
                                           'Class' => '384090',
                                           'Constructor' => 1,
                                           'Header' => undef,
                                           'Line' => '82',
                                           'MnglName' => '_ZN9exactreal3ArbC2ERKNSt7__cxx1112basic_stringIcSt11char_traitsIcESaIcEEEl',
                                           'Param' => {
                                                        '0' => {
                                                                 'name' => 'this',
                                                                 'type' => '3126642'
                                                               },
                                                        '1' => {
                                                                 'name' => 'value',
                                                                 'type' => '324364'
                                                               },
                                                        '2' => {
                                                                 'name' => 'precision',
                                                                 'type' => '384067'
                                                               }
                                                      },
                                           'ShortName' => 'Arb'
                                         },
                            '5517686' => {
                                           'Class' => '384090',
                                           'Constructor' => 1,
                                           'Header' => undef,
                                           'Line' => '82',
                                           'MnglName' => '_ZN9exactreal3ArbC1ERKNSt7__cxx1112basic_stringIcSt11char_traitsIcESaIcEEEl',
                                           'Param' => {
                                                        '0' => {
                                                                 'name' => 'this',
                                                                 'type' => '3126642'
                                                               },
                                                        '1' => {
                                                                 'name' => 'value',
                                                                 'type' => '324364'
                                                               },
                                                        '2' => {
                                                                 'name' => 'precision',
                                                                 'type' => '384067'
                                                               }
                                                      },
                                           'ShortName' => 'Arb'
                                         },
                            '5518026' => {
                                           'Class' => '384090',
                                           'Constructor' => 1,
                                           'Header' => undef,
                                           'Line' => '75',
                                           'MnglName' => '_ZN9exactreal3ArbC2ERK10__gmp_exprIA1_12__mpz_structS3_E',
                                           'Param' => {
                                                        '0' => {
                                                                 'name' => 'this',
                                                                 'type' => '3126642'
                                                               },
                                                        '1' => {
                                                                 'name' => 'value',
                                                                 'type' => '338773'
                                                               }
                                                      },
                                           'ShortName' => 'Arb'
                                         },
                            '5518027' => {
                                           'Class' => '384090',
                                           'Constructor' => 1,
                                           'Header' => undef,
                                           'Line' => '75',
                                           'MnglName' => '_ZN9exactreal3ArbC1ERK10__gmp_exprIA1_12__mpz_structS3_E',
                                           'Param' => {
                                                        '0' => {
                                                                 'name' => 'this',
                                                                 'type' => '3126642'
                                                               },
                                                        '1' => {
                                                                 'name' => 'value',
                                                                 'type' => '338773'
                                                               }
                                                      },
                                           'ShortName' => 'Arb'
                                         },
                            '5518384' => {
                                           'Class' => '384090',
                                           'Constructor' => 1,
                                           'Header' => undef,
                                           'Line' => '76',
                                           'MnglName' => '_ZN9exactreal3ArbC2ERK10__gmp_exprIA1_12__mpq_structS3_El',
                                           'Param' => {
                                                        '0' => {
                                                                 'name' => 'this',
                                                                 'type' => '3126642'
                                                               },
                                                        '1' => {
                                                                 'name' => 'rat',
                                                                 'type' => '387689'
                                                               },
                                                        '2' => {
                                                                 'name' => 'precision',
                                                                 'type' => '5371088'
                                                               }
                                                      },
                                           'ShortName' => 'Arb'
                                         },
                            '5518385' => {
                                           'Class' => '384090',
                                           'Constructor' => 1,
                                           'Header' => undef,
                                           'Line' => '76',
                                           'MnglName' => '_ZN9exactreal3ArbC1ERK10__gmp_exprIA1_12__mpq_structS3_El',
                                           'Param' => {
                                                        '0' => {
                                                                 'name' => 'this',
                                                                 'type' => '3126642'
                                                               },
                                                        '1' => {
                                                                 'name' => 'rat',
                                                                 'type' => '387689'
                                                               },
                                                        '2' => {
                                                                 'name' => 'precision',
                                                                 'type' => '5371088'
                                                               }
                                                      },
                                           'ShortName' => 'Arb'
                                         },
                            '5518816' => {
                                           'Class' => '384090',
                                           'Constructor' => 1,
                                           'Header' => undef,
                                           'Line' => '79',
                                           'MnglName' => '_ZN9exactreal3ArbC2ERKNS_3ArfE',
                                           'Param' => {
                                                        '0' => {
                                                                 'name' => 'this',
                                                                 'type' => '3126642'
                                                               },
                                                        '1' => {
                                                                 'name' => 'midpoint',
                                                                 'type' => '387624'
                                                               }
                                                      },
                                           'ShortName' => 'Arb'
                                         },
                            '5518817' => {
                                           'Class' => '384090',
                                           'Constructor' => 1,
                                           'Header' => undef,
                                           'Line' => '79',
                                           'MnglName' => '_ZN9exactreal3ArbC1ERKNS_3ArfE',
                                           'Param' => {
                                                        '0' => {
                                                                 'name' => 'this',
                                                                 'type' => '3126642'
                                                               },
                                                        '1' => {
                                                                 'name' => 'midpoint',
                                                                 'type' => '387624'
                                                               }
                                                      },
                                           'ShortName' => 'Arb'
                                         },
                            '5519477' => {
                                           'Class' => '384090',
                                           'Constructor' => 1,
                                           'Header' => undef,
                                           'Line' => '78',
                                           'MnglName' => '_ZN9exactreal3ArbC2ERKSt4pairINS_3ArfES2_El',
                                           'Param' => {
                                                        '0' => {
                                                                 'name' => 'this',
                                                                 'type' => '3126642'
                                                               },
                                                        '1' => {
                                                                 'name' => 'bounds',
                                                                 'type' => '392314'
                                                               },
                                                        '2' => {
                                                                 'name' => 'precision',
                                                                 'type' => '5371088'
                                                               }
                                                      },
                                           'ShortName' => 'Arb'
                                         },
                            '5519478' => {
                                           'Class' => '384090',
                                           'Constructor' => 1,
                                           'Header' => undef,
                                           'Line' => '78',
                                           'MnglName' => '_ZN9exactreal3ArbC1ERKSt4pairINS_3ArfES2_El',
                                           'Param' => {
                                                        '0' => {
                                                                 'name' => 'this',
                                                                 'type' => '3126642'
                                                               },
                                                        '1' => {
                                                                 'name' => 'bounds',
                                                                 'type' => '392314'
                                                               },
                                                        '2' => {
                                                                 'name' => 'precision',
                                                                 'type' => '5371088'
                                                               }
                                                      },
                                           'ShortName' => 'Arb'
                                         },
                            '5519759' => {
                                           'Class' => '384090',
                                           'Constructor' => 1,
                                           'Header' => undef,
                                           'Line' => '74',
                                           'MnglName' => '_ZN9exactreal3ArbC2EOS0_',
                                           'Param' => {
                                                        '0' => {
                                                                 'name' => 'this',
                                                                 'type' => '3126642'
                                                               },
                                                        '1' => {
